
/home/rtrk/Desktop/losmi_komentarisao/vezba08/out/kernel.elf:     file format elf32-littlearm


Disassembly of section .text:

00008000 <_start>:
    8000:	e59ff018 	ldr	pc, [pc, #24]	; 8020 <_reset_h>
    8004:	e59ff018 	ldr	pc, [pc, #24]	; 8024 <_undefined_instruction_vector_h>
    8008:	e59ff018 	ldr	pc, [pc, #24]	; 8028 <_software_interrupt_vector_h>
    800c:	e59ff018 	ldr	pc, [pc, #24]	; 802c <_prefetch_abort_vector_h>
    8010:	e59ff018 	ldr	pc, [pc, #24]	; 8030 <_data_abort_vector_h>
    8014:	e59ff018 	ldr	pc, [pc, #24]	; 8034 <_unused_handler_h>
    8018:	e59ff018 	ldr	pc, [pc, #24]	; 8038 <_interrupt_vector_h>
    801c:	e59ff018 	ldr	pc, [pc, #24]	; 803c <_fast_interrupt_vector_h>

00008020 <_reset_h>:
    8020:	00008040 	andeq	r8, r0, r0, asr #32

00008024 <_undefined_instruction_vector_h>:
    8024:	00008040 	andeq	r8, r0, r0, asr #32

00008028 <_software_interrupt_vector_h>:
    8028:	000080b0 	strheq	r8, [r0], -r0

0000802c <_prefetch_abort_vector_h>:
    802c:	00008040 	andeq	r8, r0, r0, asr #32

00008030 <_data_abort_vector_h>:
    8030:	00008040 	andeq	r8, r0, r0, asr #32

00008034 <_unused_handler_h>:
    8034:	00008040 	andeq	r8, r0, r0, asr #32

00008038 <_interrupt_vector_h>:
    8038:	000080f0 	strdeq	r8, [r0], -r0

0000803c <_fast_interrupt_vector_h>:
    803c:	00008040 	andeq	r8, r0, r0, asr #32

00008040 <_reset_>:
    8040:	f10c00c0 	cpsid	if
    8044:	e10f0000 	mrs	r0, CPSR
    8048:	e200001f 	and	r0, r0, #31
    804c:	e3a0801a 	mov	r8, #26
    8050:	e1500008 	cmp	r0, r8
    8054:	0a000000 	beq	805c <_out_of_hyp>
    8058:	ea000006 	b	8078 <_set_interrupts>

0000805c <_out_of_hyp>:
    805c:	e59f10e0 	ldr	r1, [pc, #224]	; 8144 <_halt+0x8>
    8060:	e12ef301 	msr	ELR_hyp, r1
    8064:	e10f1000 	mrs	r1, CPSR
    8068:	e201101f 	and	r1, r1, #31
    806c:	e3811013 	orr	r1, r1, #19
    8070:	e16ef301 	msr	SPSR_hyp, r1
    8074:	e160006e 	eret

00008078 <_set_interrupts>:
    8078:	e3a00902 	mov	r0, #32768	; 0x8000
    807c:	e3a01000 	mov	r1, #0
    8080:	e8b003fc 	ldm	r0!, {r2, r3, r4, r5, r6, r7, r8, r9}
    8084:	e8a103fc 	stmia	r1!, {r2, r3, r4, r5, r6, r7, r8, r9}
    8088:	e8b003fc 	ldm	r0!, {r2, r3, r4, r5, r6, r7, r8, r9}
    808c:	e8a103fc 	stmia	r1!, {r2, r3, r4, r5, r6, r7, r8, r9}
    8090:	f10e00d2 	cpsid	if,#18
    8094:	e3a0da07 	mov	sp, #28672	; 0x7000
    8098:	f10e00d3 	cpsid	if,#19
    809c:	e3a0da06 	mov	sp, #24576	; 0x6000
    80a0:	f10e00df 	cpsid	if,#31
    80a4:	e3a0d902 	mov	sp, #32768	; 0x8000
    80a8:	eb000026 	bl	8148 <_cstartup>
    80ac:	ea000022 	b	813c <_halt>

000080b0 <_svc_vector>:
    80b0:	f96d0513 	srsdb	sp!, #19
    80b4:	e92d1fff 	push	{r0, r1, r2, r3, r4, r5, r6, r7, r8, r9, sl, fp, ip}
    80b8:	f10e00df 	cpsid	if,#31
    80bc:	e1a0000d 	mov	r0, sp
    80c0:	e1a0100e 	mov	r1, lr
    80c4:	f10e00d3 	cpsid	if,#19
    80c8:	e92d0003 	push	{r0, r1}
    80cc:	e1a0000d 	mov	r0, sp
    80d0:	eb001d83 	bl	f6e4 <svc_handler>
    80d4:	e8bd0003 	pop	{r0, r1}
    80d8:	f10e00df 	cpsid	if,#31
    80dc:	e1a0e001 	mov	lr, r1
    80e0:	e1a0d000 	mov	sp, r0
    80e4:	f10e00d3 	cpsid	if,#19
    80e8:	e8bd1fff 	pop	{r0, r1, r2, r3, r4, r5, r6, r7, r8, r9, sl, fp, ip}
    80ec:	f8bd0a00 	rfeia	sp!

000080f0 <_irq_vector>:
    80f0:	e24ee004 	sub	lr, lr, #4
    80f4:	f96d0512 	srsdb	sp!, #18
    80f8:	e92d1fff 	push	{r0, r1, r2, r3, r4, r5, r6, r7, r8, r9, sl, fp, ip}
    80fc:	f10e00df 	cpsid	if,#31
    8100:	e1a0000d 	mov	r0, sp
    8104:	e1a0100e 	mov	r1, lr
    8108:	f10e00d2 	cpsid	if,#18
    810c:	e92d0003 	push	{r0, r1}
    8110:	e1a0000d 	mov	r0, sp
    8114:	eb001d5e 	bl	f694 <irq_handler>
    8118:	e8bd0003 	pop	{r0, r1}
    811c:	f10e00df 	cpsid	if,#31
    8120:	e1a0e001 	mov	lr, r1
    8124:	e1a0d000 	mov	sp, r0
    8128:	f10e00d2 	cpsid	if,#18
    812c:	e8bd1fff 	pop	{r0, r1, r2, r3, r4, r5, r6, r7, r8, r9, sl, fp, ip}
    8130:	f8bd0a00 	rfeia	sp!

00008134 <_take_flags>:
    8134:	e10f0000 	mrs	r0, CPSR
    8138:	e12fff1e 	bx	lr

0000813c <_halt>:
    813c:	e320f002 	wfe
    8140:	eafffffd 	b	813c <_halt>
    8144:	00008078 	andeq	r8, r0, r8, ror r0

00008148 <_cstartup>:
    8148:	e92d4800 	push	{fp, lr}
    814c:	e28db004 	add	fp, sp, #4
    8150:	e24dd018 	sub	sp, sp, #24
    8154:	e50b0010 	str	r0, [fp, #-16]
    8158:	e50b1014 	str	r1, [fp, #-20]	; 0xffffffec
    815c:	e50b2018 	str	r2, [fp, #-24]	; 0xffffffe8
    8160:	e30f3ee4 	movw	r3, #65252	; 0xfee4
    8164:	e3403000 	movt	r3, #0
    8168:	e50b3008 	str	r3, [fp, #-8]
    816c:	e300334c 	movw	r3, #844	; 0x34c
    8170:	e3403001 	movt	r3, #1
    8174:	e50b300c 	str	r3, [fp, #-12]
    8178:	ea000004 	b	8190 <_cstartup+0x48>
    817c:	e51b3008 	ldr	r3, [fp, #-8]
    8180:	e2832004 	add	r2, r3, #4
    8184:	e50b2008 	str	r2, [fp, #-8]
    8188:	e3a02000 	mov	r2, #0
    818c:	e5832000 	str	r2, [r3]
    8190:	e51b2008 	ldr	r2, [fp, #-8]
    8194:	e51b300c 	ldr	r3, [fp, #-12]
    8198:	e1520003 	cmp	r2, r3
    819c:	3afffff6 	bcc	817c <_cstartup+0x34>
    81a0:	e51b2018 	ldr	r2, [fp, #-24]	; 0xffffffe8
    81a4:	e51b1014 	ldr	r1, [fp, #-20]	; 0xffffffec
    81a8:	e51b0010 	ldr	r0, [fp, #-16]
    81ac:	eb001a98 	bl	ec14 <kernel_main>
    81b0:	ebffffe1 	bl	813c <_halt>
    81b4:	e320f000 	nop	{0}
    81b8:	e24bd004 	sub	sp, fp, #4
    81bc:	e8bd8800 	pop	{fp, pc}

000081c0 <set_disable>:
    81c0:	e92d4800 	push	{fp, lr}
    81c4:	e28db004 	add	fp, sp, #4
    81c8:	e24dd008 	sub	sp, sp, #8
    81cc:	ebffffd8 	bl	8134 <_take_flags>
    81d0:	e50b0008 	str	r0, [fp, #-8]
    81d4:	f10c0080 	cpsid	i
    81d8:	e51b3008 	ldr	r3, [fp, #-8]
    81dc:	e1a00003 	mov	r0, r3
    81e0:	e24bd004 	sub	sp, fp, #4
    81e4:	e8bd8800 	pop	{fp, pc}

000081e8 <set_enable>:
    81e8:	e52db004 	push	{fp}		; (str fp, [sp, #-4]!)
    81ec:	e28db000 	add	fp, sp, #0
    81f0:	e24dd00c 	sub	sp, sp, #12
    81f4:	e50b0008 	str	r0, [fp, #-8]
    81f8:	e51b3008 	ldr	r3, [fp, #-8]
    81fc:	e2033080 	and	r3, r3, #128	; 0x80
    8200:	e3530000 	cmp	r3, #0
    8204:	1a000000 	bne	820c <set_enable+0x24>
    8208:	f1080080 	cpsie	i
    820c:	e320f000 	nop	{0}
    8210:	e28bd000 	add	sp, fp, #0
    8214:	e49db004 	pop	{fp}		; (ldr fp, [sp], #4)
    8218:	e12fff1e 	bx	lr

0000821c <queue>:
    821c:	e52db004 	push	{fp}		; (str fp, [sp, #-4]!)
    8220:	e28db000 	add	fp, sp, #0
    8224:	e24dd014 	sub	sp, sp, #20
    8228:	e50b0010 	str	r0, [fp, #-16]
    822c:	e51b3010 	ldr	r3, [fp, #-16]
    8230:	e3a02000 	mov	r2, #0
    8234:	e5832068 	str	r2, [r3, #104]	; 0x68
    8238:	e30f3ef8 	movw	r3, #65272	; 0xfef8
    823c:	e3403000 	movt	r3, #0
    8240:	e5933000 	ldr	r3, [r3]
    8244:	e3530000 	cmp	r3, #0
    8248:	1a00000a 	bne	8278 <queue+0x5c>
    824c:	e30f3efc 	movw	r3, #65276	; 0xfefc
    8250:	e3403000 	movt	r3, #0
    8254:	e51b2010 	ldr	r2, [fp, #-16]
    8258:	e5832000 	str	r2, [r3]
    825c:	e30f3efc 	movw	r3, #65276	; 0xfefc
    8260:	e3403000 	movt	r3, #0
    8264:	e5932000 	ldr	r2, [r3]
    8268:	e30f3ef8 	movw	r3, #65272	; 0xfef8
    826c:	e3403000 	movt	r3, #0
    8270:	e5832000 	str	r2, [r3]
    8274:	ea000036 	b	8354 <queue+0x138>
    8278:	e30f3ef8 	movw	r3, #65272	; 0xfef8
    827c:	e3403000 	movt	r3, #0
    8280:	e5933000 	ldr	r3, [r3]
    8284:	e50b300c 	str	r3, [fp, #-12]
    8288:	e51b300c 	ldr	r3, [fp, #-12]
    828c:	e50b3008 	str	r3, [fp, #-8]
    8290:	ea000004 	b	82a8 <queue+0x8c>
    8294:	e51b300c 	ldr	r3, [fp, #-12]
    8298:	e50b3008 	str	r3, [fp, #-8]
    829c:	e51b300c 	ldr	r3, [fp, #-12]
    82a0:	e5933068 	ldr	r3, [r3, #104]	; 0x68
    82a4:	e50b300c 	str	r3, [fp, #-12]
    82a8:	e51b300c 	ldr	r3, [fp, #-12]
    82ac:	e3530000 	cmp	r3, #0
    82b0:	0a000005 	beq	82cc <queue+0xb0>
    82b4:	e51b300c 	ldr	r3, [fp, #-12]
    82b8:	e1d325b4 	ldrh	r2, [r3, #84]	; 0x54
    82bc:	e51b3010 	ldr	r3, [fp, #-16]
    82c0:	e1d335b4 	ldrh	r3, [r3, #84]	; 0x54
    82c4:	e1520003 	cmp	r2, r3
    82c8:	9afffff1 	bls	8294 <queue+0x78>
    82cc:	e51b300c 	ldr	r3, [fp, #-12]
    82d0:	e3530000 	cmp	r3, #0
    82d4:	1a000008 	bne	82fc <queue+0xe0>
    82d8:	e30f3efc 	movw	r3, #65276	; 0xfefc
    82dc:	e3403000 	movt	r3, #0
    82e0:	e5933000 	ldr	r3, [r3]
    82e4:	e51b2010 	ldr	r2, [fp, #-16]
    82e8:	e5832068 	str	r2, [r3, #104]	; 0x68
    82ec:	e30f3efc 	movw	r3, #65276	; 0xfefc
    82f0:	e3403000 	movt	r3, #0
    82f4:	e51b2010 	ldr	r2, [fp, #-16]
    82f8:	e5832000 	str	r2, [r3]
    82fc:	e30f3ef8 	movw	r3, #65272	; 0xfef8
    8300:	e3403000 	movt	r3, #0
    8304:	e5933000 	ldr	r3, [r3]
    8308:	e51b200c 	ldr	r2, [fp, #-12]
    830c:	e1520003 	cmp	r2, r3
    8310:	1a000009 	bne	833c <queue+0x120>
    8314:	e30f3ef8 	movw	r3, #65272	; 0xfef8
    8318:	e3403000 	movt	r3, #0
    831c:	e5932000 	ldr	r2, [r3]
    8320:	e51b3010 	ldr	r3, [fp, #-16]
    8324:	e5832068 	str	r2, [r3, #104]	; 0x68
    8328:	e30f3ef8 	movw	r3, #65272	; 0xfef8
    832c:	e3403000 	movt	r3, #0
    8330:	e51b2010 	ldr	r2, [fp, #-16]
    8334:	e5832000 	str	r2, [r3]
    8338:	ea000005 	b	8354 <queue+0x138>
    833c:	e51b3008 	ldr	r3, [fp, #-8]
    8340:	e51b2010 	ldr	r2, [fp, #-16]
    8344:	e5832068 	str	r2, [r3, #104]	; 0x68
    8348:	e51b3010 	ldr	r3, [fp, #-16]
    834c:	e51b200c 	ldr	r2, [fp, #-12]
    8350:	e5832068 	str	r2, [r3, #104]	; 0x68
    8354:	e320f000 	nop	{0}
    8358:	e28bd000 	add	sp, fp, #0
    835c:	e49db004 	pop	{fp}		; (ldr fp, [sp], #4)
    8360:	e12fff1e 	bx	lr

00008364 <semqueue_by_priority>:
    8364:	e52db004 	push	{fp}		; (str fp, [sp, #-4]!)
    8368:	e28db000 	add	fp, sp, #0
    836c:	e24dd01c 	sub	sp, sp, #28
    8370:	e50b0010 	str	r0, [fp, #-16]
    8374:	e50b1014 	str	r1, [fp, #-20]	; 0xffffffec
    8378:	e50b2018 	str	r2, [fp, #-24]	; 0xffffffe8
    837c:	e51b3018 	ldr	r3, [fp, #-24]	; 0xffffffe8
    8380:	e3a02000 	mov	r2, #0
    8384:	e5832070 	str	r2, [r3, #112]	; 0x70
    8388:	e51b3010 	ldr	r3, [fp, #-16]
    838c:	e5933000 	ldr	r3, [r3]
    8390:	e3530000 	cmp	r3, #0
    8394:	1a000007 	bne	83b8 <semqueue_by_priority+0x54>
    8398:	e51b3014 	ldr	r3, [fp, #-20]	; 0xffffffec
    839c:	e51b2018 	ldr	r2, [fp, #-24]	; 0xffffffe8
    83a0:	e5832000 	str	r2, [r3]
    83a4:	e51b3014 	ldr	r3, [fp, #-20]	; 0xffffffec
    83a8:	e5932000 	ldr	r2, [r3]
    83ac:	e51b3010 	ldr	r3, [fp, #-16]
    83b0:	e5832000 	str	r2, [r3]
    83b4:	ea000030 	b	847c <semqueue_by_priority+0x118>
    83b8:	e51b3010 	ldr	r3, [fp, #-16]
    83bc:	e5933000 	ldr	r3, [r3]
    83c0:	e50b300c 	str	r3, [fp, #-12]
    83c4:	e51b300c 	ldr	r3, [fp, #-12]
    83c8:	e50b3008 	str	r3, [fp, #-8]
    83cc:	ea000004 	b	83e4 <semqueue_by_priority+0x80>
    83d0:	e51b300c 	ldr	r3, [fp, #-12]
    83d4:	e50b3008 	str	r3, [fp, #-8]
    83d8:	e51b300c 	ldr	r3, [fp, #-12]
    83dc:	e5933070 	ldr	r3, [r3, #112]	; 0x70
    83e0:	e50b300c 	str	r3, [fp, #-12]
    83e4:	e51b300c 	ldr	r3, [fp, #-12]
    83e8:	e3530000 	cmp	r3, #0
    83ec:	0a000005 	beq	8408 <semqueue_by_priority+0xa4>
    83f0:	e51b300c 	ldr	r3, [fp, #-12]
    83f4:	e1d325b4 	ldrh	r2, [r3, #84]	; 0x54
    83f8:	e51b3018 	ldr	r3, [fp, #-24]	; 0xffffffe8
    83fc:	e1d335b4 	ldrh	r3, [r3, #84]	; 0x54
    8400:	e1520003 	cmp	r2, r3
    8404:	9afffff1 	bls	83d0 <semqueue_by_priority+0x6c>
    8408:	e51b300c 	ldr	r3, [fp, #-12]
    840c:	e3530000 	cmp	r3, #0
    8410:	1a000006 	bne	8430 <semqueue_by_priority+0xcc>
    8414:	e51b3014 	ldr	r3, [fp, #-20]	; 0xffffffec
    8418:	e5933000 	ldr	r3, [r3]
    841c:	e51b2018 	ldr	r2, [fp, #-24]	; 0xffffffe8
    8420:	e5832070 	str	r2, [r3, #112]	; 0x70
    8424:	e51b3014 	ldr	r3, [fp, #-20]	; 0xffffffec
    8428:	e51b2018 	ldr	r2, [fp, #-24]	; 0xffffffe8
    842c:	e5832000 	str	r2, [r3]
    8430:	e51b3010 	ldr	r3, [fp, #-16]
    8434:	e5933000 	ldr	r3, [r3]
    8438:	e51b200c 	ldr	r2, [fp, #-12]
    843c:	e1520003 	cmp	r2, r3
    8440:	1a000007 	bne	8464 <semqueue_by_priority+0x100>
    8444:	e51b3010 	ldr	r3, [fp, #-16]
    8448:	e5932000 	ldr	r2, [r3]
    844c:	e51b3018 	ldr	r3, [fp, #-24]	; 0xffffffe8
    8450:	e5832070 	str	r2, [r3, #112]	; 0x70
    8454:	e51b3010 	ldr	r3, [fp, #-16]
    8458:	e51b2018 	ldr	r2, [fp, #-24]	; 0xffffffe8
    845c:	e5832000 	str	r2, [r3]
    8460:	ea000005 	b	847c <semqueue_by_priority+0x118>
    8464:	e51b3008 	ldr	r3, [fp, #-8]
    8468:	e51b2018 	ldr	r2, [fp, #-24]	; 0xffffffe8
    846c:	e5832070 	str	r2, [r3, #112]	; 0x70
    8470:	e51b3018 	ldr	r3, [fp, #-24]	; 0xffffffe8
    8474:	e51b200c 	ldr	r2, [fp, #-12]
    8478:	e5832070 	str	r2, [r3, #112]	; 0x70
    847c:	e320f000 	nop	{0}
    8480:	e28bd000 	add	sp, fp, #0
    8484:	e49db004 	pop	{fp}		; (ldr fp, [sp], #4)
    8488:	e12fff1e 	bx	lr

0000848c <dispatch>:
    848c:	e92d4800 	push	{fp, lr}
    8490:	e28db004 	add	fp, sp, #4
    8494:	e24dd008 	sub	sp, sp, #8
    8498:	e3a03000 	mov	r3, #0
    849c:	e50b3008 	str	r3, [fp, #-8]
    84a0:	ebffff46 	bl	81c0 <set_disable>
    84a4:	e50b000c 	str	r0, [fp, #-12]
    84a8:	e30f3f2c 	movw	r3, #65324	; 0xff2c
    84ac:	e3403000 	movt	r3, #0
    84b0:	e3a02001 	mov	r2, #1
    84b4:	e5832000 	str	r2, [r3]
    84b8:	e30f3f04 	movw	r3, #65284	; 0xff04
    84bc:	e3403000 	movt	r3, #0
    84c0:	e5933000 	ldr	r3, [r3]
    84c4:	e2033002 	and	r3, r3, #2
    84c8:	e3530000 	cmp	r3, #0
    84cc:	1a000001 	bne	84d8 <dispatch+0x4c>
    84d0:	e3a03001 	mov	r3, #1
    84d4:	e50b3008 	str	r3, [fp, #-8]
    84d8:	e51b000c 	ldr	r0, [fp, #-12]
    84dc:	ebffff41 	bl	81e8 <set_enable>
    84e0:	e51b3008 	ldr	r3, [fp, #-8]
    84e4:	e3530000 	cmp	r3, #0
    84e8:	1a000000 	bne	84f0 <dispatch+0x64>
    84ec:	ef000060 	svc	0x00000060
    84f0:	e320f000 	nop	{0}
    84f4:	e24bd004 	sub	sp, fp, #4
    84f8:	e8bd8800 	pop	{fp, pc}

000084fc <trmrq>:
    84fc:	e92d4800 	push	{fp, lr}
    8500:	e28db004 	add	fp, sp, #4
    8504:	e24dd008 	sub	sp, sp, #8
    8508:	e30f3ef4 	movw	r3, #65268	; 0xfef4
    850c:	e3403000 	movt	r3, #0
    8510:	e5933000 	ldr	r3, [r3]
    8514:	e1d334b4 	ldrh	r3, [r3, #68]	; 0x44
    8518:	e3530000 	cmp	r3, #0
    851c:	0a000017 	beq	8580 <trmrq+0x84>
    8520:	ebffff26 	bl	81c0 <set_disable>
    8524:	e50b0008 	str	r0, [fp, #-8]
    8528:	e30f3ef4 	movw	r3, #65268	; 0xfef4
    852c:	e3403000 	movt	r3, #0
    8530:	e5933000 	ldr	r3, [r3]
    8534:	e3a02005 	mov	r2, #5
    8538:	e1c324b8 	strh	r2, [r3, #72]	; 0x48
    853c:	e51b0008 	ldr	r0, [fp, #-8]
    8540:	ebffff28 	bl	81e8 <set_enable>
    8544:	ea000006 	b	8564 <trmrq+0x68>
    8548:	e30f3f04 	movw	r3, #65284	; 0xff04
    854c:	e3403000 	movt	r3, #0
    8550:	e5933000 	ldr	r3, [r3]
    8554:	e2033002 	and	r3, r3, #2
    8558:	e3530000 	cmp	r3, #0
    855c:	0a000000 	beq	8564 <trmrq+0x68>
    8560:	ef000060 	svc	0x00000060
    8564:	e30f3ef4 	movw	r3, #65268	; 0xfef4
    8568:	e3403000 	movt	r3, #0
    856c:	e5933000 	ldr	r3, [r3]
    8570:	e1d334b8 	ldrh	r3, [r3, #72]	; 0x48
    8574:	e3530005 	cmp	r3, #5
    8578:	0afffff2 	beq	8548 <trmrq+0x4c>
    857c:	ea000000 	b	8584 <trmrq+0x88>
    8580:	e320f000 	nop	{0}
    8584:	e24bd004 	sub	sp, fp, #4
    8588:	e8bd8800 	pop	{fp, pc}

0000858c <gethandler>:
    858c:	e52db004 	push	{fp}		; (str fp, [sp, #-4]!)
    8590:	e28db000 	add	fp, sp, #0
    8594:	e24dd00c 	sub	sp, sp, #12
    8598:	e30f3ef4 	movw	r3, #65268	; 0xfef4
    859c:	e3403000 	movt	r3, #0
    85a0:	e5933000 	ldr	r3, [r3]
    85a4:	e3530000 	cmp	r3, #0
    85a8:	0a000005 	beq	85c4 <gethandler+0x38>
    85ac:	e30f3ef4 	movw	r3, #65268	; 0xfef4
    85b0:	e3403000 	movt	r3, #0
    85b4:	e5933000 	ldr	r3, [r3]
    85b8:	e1d334b4 	ldrh	r3, [r3, #68]	; 0x44
    85bc:	e50b3008 	str	r3, [fp, #-8]
    85c0:	ea000001 	b	85cc <gethandler+0x40>
    85c4:	e3e03000 	mvn	r3, #0
    85c8:	e50b3008 	str	r3, [fp, #-8]
    85cc:	e51b3008 	ldr	r3, [fp, #-8]
    85d0:	e1a00003 	mov	r0, r3
    85d4:	e28bd000 	add	sp, fp, #0
    85d8:	e49db004 	pop	{fp}		; (ldr fp, [sp], #4)
    85dc:	e12fff1e 	bx	lr

000085e0 <create_task>:
    85e0:	e92d4800 	push	{fp, lr}
    85e4:	e28db004 	add	fp, sp, #4
    85e8:	e24dd028 	sub	sp, sp, #40	; 0x28
    85ec:	e50b0020 	str	r0, [fp, #-32]	; 0xffffffe0
    85f0:	e50b1024 	str	r1, [fp, #-36]	; 0xffffffdc
    85f4:	e50b2028 	str	r2, [fp, #-40]	; 0xffffffd8
    85f8:	e50b302c 	str	r3, [fp, #-44]	; 0xffffffd4
    85fc:	e24dd004 	sub	sp, sp, #4
    8600:	e52d0004 	push	{r0}		; (str r0, [sp, #-4]!)
    8604:	e10f0000 	mrs	r0, CPSR
    8608:	e58d0004 	str	r0, [sp, #4]
    860c:	e49d0004 	pop	{r0}		; (ldr r0, [sp], #4)
    8610:	e3003334 	movw	r3, #820	; 0x334
    8614:	e3403001 	movt	r3, #1
    8618:	e5933000 	ldr	r3, [r3]
    861c:	e2832001 	add	r2, r3, #1
    8620:	e3003334 	movw	r3, #820	; 0x334
    8624:	e3403001 	movt	r3, #1
    8628:	e5832000 	str	r2, [r3]
    862c:	e52d0004 	push	{r0}		; (str r0, [sp, #-4]!)
    8630:	e59d0004 	ldr	r0, [sp, #4]
    8634:	e129f000 	msr	CPSR_fc, r0
    8638:	e49d0004 	pop	{r0}		; (ldr r0, [sp], #4)
    863c:	e28dd004 	add	sp, sp, #4
    8640:	e3a03000 	mov	r3, #0
    8644:	e50b302c 	str	r3, [fp, #-44]	; 0xffffffd4
    8648:	e30f3eb8 	movw	r3, #65208	; 0xfeb8
    864c:	e3403000 	movt	r3, #0
    8650:	e5933000 	ldr	r3, [r3]
    8654:	e35300ff 	cmp	r3, #255	; 0xff
    8658:	1a000012 	bne	86a8 <create_task+0xc8>
    865c:	e24dd004 	sub	sp, sp, #4
    8660:	e52d0004 	push	{r0}		; (str r0, [sp, #-4]!)
    8664:	e10f0000 	mrs	r0, CPSR
    8668:	e58d0004 	str	r0, [sp, #4]
    866c:	e49d0004 	pop	{r0}		; (ldr r0, [sp], #4)
    8670:	e3003334 	movw	r3, #820	; 0x334
    8674:	e3403001 	movt	r3, #1
    8678:	e5933000 	ldr	r3, [r3]
    867c:	e2432001 	sub	r2, r3, #1
    8680:	e3003334 	movw	r3, #820	; 0x334
    8684:	e3403001 	movt	r3, #1
    8688:	e5832000 	str	r2, [r3]
    868c:	e52d0004 	push	{r0}		; (str r0, [sp, #-4]!)
    8690:	e59d0004 	ldr	r0, [sp, #4]
    8694:	e129f000 	msr	CPSR_fc, r0
    8698:	e49d0004 	pop	{r0}		; (ldr r0, [sp], #4)
    869c:	e28dd004 	add	sp, sp, #4
    86a0:	e3e03001 	mvn	r3, #1
    86a4:	ea0000a4 	b	893c <create_task+0x35c>
    86a8:	e51b3024 	ldr	r3, [fp, #-36]	; 0xffffffdc
    86ac:	e2833044 	add	r3, r3, #68	; 0x44
    86b0:	e1a00003 	mov	r0, r3
    86b4:	eb001c56 	bl	f814 <malloc>
    86b8:	e1a03000 	mov	r3, r0
    86bc:	e50b3010 	str	r3, [fp, #-16]
    86c0:	e51b3010 	ldr	r3, [fp, #-16]
    86c4:	e3530000 	cmp	r3, #0
    86c8:	1a000012 	bne	8718 <create_task+0x138>
    86cc:	e24dd004 	sub	sp, sp, #4
    86d0:	e52d0004 	push	{r0}		; (str r0, [sp, #-4]!)
    86d4:	e10f0000 	mrs	r0, CPSR
    86d8:	e58d0004 	str	r0, [sp, #4]
    86dc:	e49d0004 	pop	{r0}		; (ldr r0, [sp], #4)
    86e0:	e3003334 	movw	r3, #820	; 0x334
    86e4:	e3403001 	movt	r3, #1
    86e8:	e5933000 	ldr	r3, [r3]
    86ec:	e2432001 	sub	r2, r3, #1
    86f0:	e3003334 	movw	r3, #820	; 0x334
    86f4:	e3403001 	movt	r3, #1
    86f8:	e5832000 	str	r2, [r3]
    86fc:	e52d0004 	push	{r0}		; (str r0, [sp, #-4]!)
    8700:	e59d0004 	ldr	r0, [sp, #4]
    8704:	e129f000 	msr	CPSR_fc, r0
    8708:	e49d0004 	pop	{r0}		; (ldr r0, [sp], #4)
    870c:	e28dd004 	add	sp, sp, #4
    8710:	e3e03000 	mvn	r3, #0
    8714:	ea000088 	b	893c <create_task+0x35c>
    8718:	e3a000a4 	mov	r0, #164	; 0xa4
    871c:	eb001c3c 	bl	f814 <malloc>
    8720:	e1a03000 	mov	r3, r0
    8724:	e50b3014 	str	r3, [fp, #-20]	; 0xffffffec
    8728:	e51b3014 	ldr	r3, [fp, #-20]	; 0xffffffec
    872c:	e3530000 	cmp	r3, #0
    8730:	1a000014 	bne	8788 <create_task+0x1a8>
    8734:	e51b0010 	ldr	r0, [fp, #-16]
    8738:	eb001c81 	bl	f944 <free>
    873c:	e24dd004 	sub	sp, sp, #4
    8740:	e52d0004 	push	{r0}		; (str r0, [sp, #-4]!)
    8744:	e10f0000 	mrs	r0, CPSR
    8748:	e58d0004 	str	r0, [sp, #4]
    874c:	e49d0004 	pop	{r0}		; (ldr r0, [sp], #4)
    8750:	e3003334 	movw	r3, #820	; 0x334
    8754:	e3403001 	movt	r3, #1
    8758:	e5933000 	ldr	r3, [r3]
    875c:	e2432001 	sub	r2, r3, #1
    8760:	e3003334 	movw	r3, #820	; 0x334
    8764:	e3403001 	movt	r3, #1
    8768:	e5832000 	str	r2, [r3]
    876c:	e52d0004 	push	{r0}		; (str r0, [sp, #-4]!)
    8770:	e59d0004 	ldr	r0, [sp, #4]
    8774:	e129f000 	msr	CPSR_fc, r0
    8778:	e49d0004 	pop	{r0}		; (ldr r0, [sp], #4)
    877c:	e28dd004 	add	sp, sp, #4
    8780:	e3e03000 	mvn	r3, #0
    8784:	ea00006c 	b	893c <create_task+0x35c>
    8788:	e51b3014 	ldr	r3, [fp, #-20]	; 0xffffffec
    878c:	e51b2010 	ldr	r2, [fp, #-16]
    8790:	e5832060 	str	r2, [r3, #96]	; 0x60
    8794:	e51b3014 	ldr	r3, [fp, #-20]	; 0xffffffec
    8798:	e51b2020 	ldr	r2, [fp, #-32]	; 0xffffffe0
    879c:	e5832058 	str	r2, [r3, #88]	; 0x58
    87a0:	e51b2024 	ldr	r2, [fp, #-36]	; 0xffffffdc
    87a4:	e51b3014 	ldr	r3, [fp, #-20]	; 0xffffffec
    87a8:	e5832064 	str	r2, [r3, #100]	; 0x64
    87ac:	e51b3014 	ldr	r3, [fp, #-20]	; 0xffffffec
    87b0:	e51b2028 	ldr	r2, [fp, #-40]	; 0xffffffd8
    87b4:	e583205c 	str	r2, [r3, #92]	; 0x5c
    87b8:	e51b3014 	ldr	r3, [fp, #-20]	; 0xffffffec
    87bc:	e3a02005 	mov	r2, #5
    87c0:	e1c324b8 	strh	r2, [r3, #72]	; 0x48
    87c4:	ebfffe7d 	bl	81c0 <set_disable>
    87c8:	e50b0018 	str	r0, [fp, #-24]	; 0xffffffe8
    87cc:	e30f3eb8 	movw	r3, #65208	; 0xfeb8
    87d0:	e3403000 	movt	r3, #0
    87d4:	e5933000 	ldr	r3, [r3]
    87d8:	e2832001 	add	r2, r3, #1
    87dc:	e30f3eb8 	movw	r3, #65208	; 0xfeb8
    87e0:	e3403000 	movt	r3, #0
    87e4:	e5832000 	str	r2, [r3]
    87e8:	e3a03000 	mov	r3, #0
    87ec:	e50b300c 	str	r3, [fp, #-12]
    87f0:	e3a03001 	mov	r3, #1
    87f4:	e50b3008 	str	r3, [fp, #-8]
    87f8:	ea00000b 	b	882c <create_task+0x24c>
    87fc:	e30f3f38 	movw	r3, #65336	; 0xff38
    8800:	e3403000 	movt	r3, #0
    8804:	e51b2008 	ldr	r2, [fp, #-8]
    8808:	e7933102 	ldr	r3, [r3, r2, lsl #2]
    880c:	e3530000 	cmp	r3, #0
    8810:	1a000002 	bne	8820 <create_task+0x240>
    8814:	e51b3008 	ldr	r3, [fp, #-8]
    8818:	e50b300c 	str	r3, [fp, #-12]
    881c:	ea000008 	b	8844 <create_task+0x264>
    8820:	e51b3008 	ldr	r3, [fp, #-8]
    8824:	e2833001 	add	r3, r3, #1
    8828:	e50b3008 	str	r3, [fp, #-8]
    882c:	e51b2008 	ldr	r2, [fp, #-8]
    8830:	e30f3f08 	movw	r3, #65288	; 0xff08
    8834:	e3403000 	movt	r3, #0
    8838:	e5933000 	ldr	r3, [r3]
    883c:	e1520003 	cmp	r2, r3
    8840:	3affffed 	bcc	87fc <create_task+0x21c>
    8844:	e51b300c 	ldr	r3, [fp, #-12]
    8848:	e3530000 	cmp	r3, #0
    884c:	1a00000a 	bne	887c <create_task+0x29c>
    8850:	e30f3f08 	movw	r3, #65288	; 0xff08
    8854:	e3403000 	movt	r3, #0
    8858:	e5933000 	ldr	r3, [r3]
    885c:	e2832001 	add	r2, r3, #1
    8860:	e30f3f08 	movw	r3, #65288	; 0xff08
    8864:	e3403000 	movt	r3, #0
    8868:	e5832000 	str	r2, [r3]
    886c:	e30f3f08 	movw	r3, #65288	; 0xff08
    8870:	e3403000 	movt	r3, #0
    8874:	e5933000 	ldr	r3, [r3]
    8878:	e50b300c 	str	r3, [fp, #-12]
    887c:	e51b300c 	ldr	r3, [fp, #-12]
    8880:	e6ff2073 	uxth	r2, r3
    8884:	e51b3014 	ldr	r3, [fp, #-20]	; 0xffffffec
    8888:	e1c324b4 	strh	r2, [r3, #68]	; 0x44
    888c:	e30f3f38 	movw	r3, #65336	; 0xff38
    8890:	e3403000 	movt	r3, #0
    8894:	e51b200c 	ldr	r2, [fp, #-12]
    8898:	e51b1014 	ldr	r1, [fp, #-20]	; 0xffffffec
    889c:	e7831102 	str	r1, [r3, r2, lsl #2]
    88a0:	e51b302c 	ldr	r3, [fp, #-44]	; 0xffffffd4
    88a4:	e3530000 	cmp	r3, #0
    88a8:	0a000001 	beq	88b4 <create_task+0x2d4>
    88ac:	e51b202c 	ldr	r2, [fp, #-44]	; 0xffffffd4
    88b0:	ea000000 	b	88b8 <create_task+0x2d8>
    88b4:	e3e02000 	mvn	r2, #0
    88b8:	e30f3f38 	movw	r3, #65336	; 0xff38
    88bc:	e3403000 	movt	r3, #0
    88c0:	e51b100c 	ldr	r1, [fp, #-12]
    88c4:	e7933101 	ldr	r3, [r3, r1, lsl #2]
    88c8:	e5832050 	str	r2, [r3, #80]	; 0x50
    88cc:	ebffff2e 	bl	858c <gethandler>
    88d0:	e1a01000 	mov	r1, r0
    88d4:	e30f3f38 	movw	r3, #65336	; 0xff38
    88d8:	e3403000 	movt	r3, #0
    88dc:	e51b200c 	ldr	r2, [fp, #-12]
    88e0:	e7933102 	ldr	r3, [r3, r2, lsl #2]
    88e4:	e6ff2071 	uxth	r2, r1
    88e8:	e1c324b6 	strh	r2, [r3, #70]	; 0x46
    88ec:	e51b0018 	ldr	r0, [fp, #-24]	; 0xffffffe8
    88f0:	ebfffe3c 	bl	81e8 <set_enable>
    88f4:	e24dd004 	sub	sp, sp, #4
    88f8:	e52d0004 	push	{r0}		; (str r0, [sp, #-4]!)
    88fc:	e10f0000 	mrs	r0, CPSR
    8900:	e58d0004 	str	r0, [sp, #4]
    8904:	e49d0004 	pop	{r0}		; (ldr r0, [sp], #4)
    8908:	e3003334 	movw	r3, #820	; 0x334
    890c:	e3403001 	movt	r3, #1
    8910:	e5933000 	ldr	r3, [r3]
    8914:	e2432001 	sub	r2, r3, #1
    8918:	e3003334 	movw	r3, #820	; 0x334
    891c:	e3403001 	movt	r3, #1
    8920:	e5832000 	str	r2, [r3]
    8924:	e52d0004 	push	{r0}		; (str r0, [sp, #-4]!)
    8928:	e59d0004 	ldr	r0, [sp, #4]
    892c:	e129f000 	msr	CPSR_fc, r0
    8930:	e49d0004 	pop	{r0}		; (ldr r0, [sp], #4)
    8934:	e28dd004 	add	sp, sp, #4
    8938:	e51b300c 	ldr	r3, [fp, #-12]
    893c:	e1a00003 	mov	r0, r3
    8940:	e24bd004 	sub	sp, fp, #4
    8944:	e8bd8800 	pop	{fp, pc}

00008948 <__destroy_task>:
    8948:	e92d4800 	push	{fp, lr}
    894c:	e28db004 	add	fp, sp, #4
    8950:	e24dd008 	sub	sp, sp, #8
    8954:	e50b0008 	str	r0, [fp, #-8]
    8958:	e24dd004 	sub	sp, sp, #4
    895c:	e52d0004 	push	{r0}		; (str r0, [sp, #-4]!)
    8960:	e10f0000 	mrs	r0, CPSR
    8964:	e58d0004 	str	r0, [sp, #4]
    8968:	e49d0004 	pop	{r0}		; (ldr r0, [sp], #4)
    896c:	e3003334 	movw	r3, #820	; 0x334
    8970:	e3403001 	movt	r3, #1
    8974:	e5933000 	ldr	r3, [r3]
    8978:	e2832001 	add	r2, r3, #1
    897c:	e3003334 	movw	r3, #820	; 0x334
    8980:	e3403001 	movt	r3, #1
    8984:	e5832000 	str	r2, [r3]
    8988:	e52d0004 	push	{r0}		; (str r0, [sp, #-4]!)
    898c:	e59d0004 	ldr	r0, [sp, #4]
    8990:	e129f000 	msr	CPSR_fc, r0
    8994:	e49d0004 	pop	{r0}		; (ldr r0, [sp], #4)
    8998:	e28dd004 	add	sp, sp, #4
    899c:	e30f3f38 	movw	r3, #65336	; 0xff38
    89a0:	e3403000 	movt	r3, #0
    89a4:	e51b2008 	ldr	r2, [fp, #-8]
    89a8:	e7933102 	ldr	r3, [r3, r2, lsl #2]
    89ac:	e5933060 	ldr	r3, [r3, #96]	; 0x60
    89b0:	e1a00003 	mov	r0, r3
    89b4:	eb001be2 	bl	f944 <free>
    89b8:	e30f3f38 	movw	r3, #65336	; 0xff38
    89bc:	e3403000 	movt	r3, #0
    89c0:	e51b2008 	ldr	r2, [fp, #-8]
    89c4:	e7933102 	ldr	r3, [r3, r2, lsl #2]
    89c8:	e1a00003 	mov	r0, r3
    89cc:	eb001bdc 	bl	f944 <free>
    89d0:	e30f3f38 	movw	r3, #65336	; 0xff38
    89d4:	e3403000 	movt	r3, #0
    89d8:	e51b2008 	ldr	r2, [fp, #-8]
    89dc:	e3a01000 	mov	r1, #0
    89e0:	e7831102 	str	r1, [r3, r2, lsl #2]
    89e4:	e30f3eb8 	movw	r3, #65208	; 0xfeb8
    89e8:	e3403000 	movt	r3, #0
    89ec:	e5933000 	ldr	r3, [r3]
    89f0:	e2432001 	sub	r2, r3, #1
    89f4:	e30f3eb8 	movw	r3, #65208	; 0xfeb8
    89f8:	e3403000 	movt	r3, #0
    89fc:	e5832000 	str	r2, [r3]
    8a00:	e51b2008 	ldr	r2, [fp, #-8]
    8a04:	e30f3f08 	movw	r3, #65288	; 0xff08
    8a08:	e3403000 	movt	r3, #0
    8a0c:	e5933000 	ldr	r3, [r3]
    8a10:	e1520003 	cmp	r2, r3
    8a14:	1a000016 	bne	8a74 <__destroy_task+0x12c>
    8a18:	ea00000e 	b	8a58 <__destroy_task+0x110>
    8a1c:	e30f3f08 	movw	r3, #65288	; 0xff08
    8a20:	e3403000 	movt	r3, #0
    8a24:	e5932000 	ldr	r2, [r3]
    8a28:	e30f3f38 	movw	r3, #65336	; 0xff38
    8a2c:	e3403000 	movt	r3, #0
    8a30:	e7933102 	ldr	r3, [r3, r2, lsl #2]
    8a34:	e3530000 	cmp	r3, #0
    8a38:	1a00000c 	bne	8a70 <__destroy_task+0x128>
    8a3c:	e30f3f08 	movw	r3, #65288	; 0xff08
    8a40:	e3403000 	movt	r3, #0
    8a44:	e5933000 	ldr	r3, [r3]
    8a48:	e2432001 	sub	r2, r3, #1
    8a4c:	e30f3f08 	movw	r3, #65288	; 0xff08
    8a50:	e3403000 	movt	r3, #0
    8a54:	e5832000 	str	r2, [r3]
    8a58:	e30f3f08 	movw	r3, #65288	; 0xff08
    8a5c:	e3403000 	movt	r3, #0
    8a60:	e5933000 	ldr	r3, [r3]
    8a64:	e3530000 	cmp	r3, #0
    8a68:	1affffeb 	bne	8a1c <__destroy_task+0xd4>
    8a6c:	ea000000 	b	8a74 <__destroy_task+0x12c>
    8a70:	e320f000 	nop	{0}
    8a74:	e24dd004 	sub	sp, sp, #4
    8a78:	e52d0004 	push	{r0}		; (str r0, [sp, #-4]!)
    8a7c:	e10f0000 	mrs	r0, CPSR
    8a80:	e58d0004 	str	r0, [sp, #4]
    8a84:	e49d0004 	pop	{r0}		; (ldr r0, [sp], #4)
    8a88:	e3003334 	movw	r3, #820	; 0x334
    8a8c:	e3403001 	movt	r3, #1
    8a90:	e5933000 	ldr	r3, [r3]
    8a94:	e2432001 	sub	r2, r3, #1
    8a98:	e3003334 	movw	r3, #820	; 0x334
    8a9c:	e3403001 	movt	r3, #1
    8aa0:	e5832000 	str	r2, [r3]
    8aa4:	e52d0004 	push	{r0}		; (str r0, [sp, #-4]!)
    8aa8:	e59d0004 	ldr	r0, [sp, #4]
    8aac:	e129f000 	msr	CPSR_fc, r0
    8ab0:	e49d0004 	pop	{r0}		; (ldr r0, [sp], #4)
    8ab4:	e28dd004 	add	sp, sp, #4
    8ab8:	e320f000 	nop	{0}
    8abc:	e24bd004 	sub	sp, fp, #4
    8ac0:	e8bd8800 	pop	{fp, pc}

00008ac4 <kill_task>:
    8ac4:	e92d4800 	push	{fp, lr}
    8ac8:	e28db004 	add	fp, sp, #4
    8acc:	e24dd018 	sub	sp, sp, #24
    8ad0:	e50b0018 	str	r0, [fp, #-24]	; 0xffffffe8
    8ad4:	e51b3018 	ldr	r3, [fp, #-24]	; 0xffffffe8
    8ad8:	e3530000 	cmp	r3, #0
    8adc:	da00000b 	ble	8b10 <kill_task+0x4c>
    8ae0:	e51b3018 	ldr	r3, [fp, #-24]	; 0xffffffe8
    8ae4:	e1a02003 	mov	r2, r3
    8ae8:	e30f3f08 	movw	r3, #65288	; 0xff08
    8aec:	e3403000 	movt	r3, #0
    8af0:	e5933000 	ldr	r3, [r3]
    8af4:	e1520003 	cmp	r2, r3
    8af8:	8a000004 	bhi	8b10 <kill_task+0x4c>
    8afc:	e30f3eb8 	movw	r3, #65208	; 0xfeb8
    8b00:	e3403000 	movt	r3, #0
    8b04:	e5933000 	ldr	r3, [r3]
    8b08:	e3530001 	cmp	r3, #1
    8b0c:	1a000001 	bne	8b18 <kill_task+0x54>
    8b10:	e3e03000 	mvn	r3, #0
    8b14:	ea000034 	b	8bec <kill_task+0x128>
    8b18:	e51b2018 	ldr	r2, [fp, #-24]	; 0xffffffe8
    8b1c:	e30f3f38 	movw	r3, #65336	; 0xff38
    8b20:	e3403000 	movt	r3, #0
    8b24:	e7933102 	ldr	r3, [r3, r2, lsl #2]
    8b28:	e3530000 	cmp	r3, #0
    8b2c:	1a000001 	bne	8b38 <kill_task+0x74>
    8b30:	e3e03001 	mvn	r3, #1
    8b34:	ea00002c 	b	8bec <kill_task+0x128>
    8b38:	e51b2018 	ldr	r2, [fp, #-24]	; 0xffffffe8
    8b3c:	e30f3f38 	movw	r3, #65336	; 0xff38
    8b40:	e3403000 	movt	r3, #0
    8b44:	e7933102 	ldr	r3, [r3, r2, lsl #2]
    8b48:	e1d334b8 	ldrh	r3, [r3, #72]	; 0x48
    8b4c:	e3530005 	cmp	r3, #5
    8b50:	0a000021 	beq	8bdc <kill_task+0x118>
    8b54:	e51b2018 	ldr	r2, [fp, #-24]	; 0xffffffe8
    8b58:	e30f3f38 	movw	r3, #65336	; 0xff38
    8b5c:	e3403000 	movt	r3, #0
    8b60:	e7932102 	ldr	r2, [r3, r2, lsl #2]
    8b64:	e30f3ef4 	movw	r3, #65268	; 0xfef4
    8b68:	e3403000 	movt	r3, #0
    8b6c:	e5933000 	ldr	r3, [r3]
    8b70:	e1520003 	cmp	r2, r3
    8b74:	1a000016 	bne	8bd4 <kill_task+0x110>
    8b78:	e3a03000 	mov	r3, #0
    8b7c:	e50b3008 	str	r3, [fp, #-8]
    8b80:	e3a03001 	mov	r3, #1
    8b84:	e54b3014 	strb	r3, [fp, #-20]	; 0xffffffec
    8b88:	e24b3014 	sub	r3, fp, #20
    8b8c:	e2833001 	add	r3, r3, #1
    8b90:	e3a02004 	mov	r2, #4
    8b94:	e50b2008 	str	r2, [fp, #-8]
    8b98:	e24b1018 	sub	r1, fp, #24
    8b9c:	e3a02004 	mov	r2, #4
    8ba0:	e1a00003 	mov	r0, r3
    8ba4:	eb001ba4 	bl	fa3c <memcp>
    8ba8:	e30f3f18 	movw	r3, #65304	; 0xff18
    8bac:	e3403000 	movt	r3, #0
    8bb0:	e5930000 	ldr	r0, [r3]
    8bb4:	e51b3008 	ldr	r3, [fp, #-8]
    8bb8:	e2833001 	add	r3, r3, #1
    8bbc:	e50b3008 	str	r3, [fp, #-8]
    8bc0:	e24b2014 	sub	r2, fp, #20
    8bc4:	e3a03000 	mov	r3, #0
    8bc8:	e51b1008 	ldr	r1, [fp, #-8]
    8bcc:	eb000cde 	bl	bf4c <send_task_message>
    8bd0:	ebfffe49 	bl	84fc <trmrq>
    8bd4:	e3e03002 	mvn	r3, #2
    8bd8:	ea000003 	b	8bec <kill_task+0x128>
    8bdc:	e51b3018 	ldr	r3, [fp, #-24]	; 0xffffffe8
    8be0:	e1a00003 	mov	r0, r3
    8be4:	ebffff57 	bl	8948 <__destroy_task>
    8be8:	e3a03000 	mov	r3, #0
    8bec:	e1a00003 	mov	r0, r3
    8bf0:	e24bd004 	sub	sp, fp, #4
    8bf4:	e8bd8800 	pop	{fp, pc}

00008bf8 <IdleTask>:
    8bf8:	e52db004 	push	{fp}		; (str fp, [sp, #-4]!)
    8bfc:	e28db000 	add	fp, sp, #0
    8c00:	e24dd00c 	sub	sp, sp, #12
    8c04:	e50b0008 	str	r0, [fp, #-8]
    8c08:	eafffffe 	b	8c08 <IdleTask+0x10>

00008c0c <SysMaintenance>:
    8c0c:	e92d4800 	push	{fp, lr}
    8c10:	e28db004 	add	fp, sp, #4
    8c14:	e24dd050 	sub	sp, sp, #80	; 0x50
    8c18:	e50b0050 	str	r0, [fp, #-80]	; 0xffffffb0
    8c1c:	e24b3044 	sub	r3, fp, #68	; 0x44
    8c20:	e1a01003 	mov	r1, r3
    8c24:	e3a00040 	mov	r0, #64	; 0x40
    8c28:	eb000dd5 	bl	c384 <get_task_message>
    8c2c:	e55b3044 	ldrb	r3, [fp, #-68]	; 0xffffffbc
    8c30:	e3530001 	cmp	r3, #1
    8c34:	1afffff8 	bne	8c1c <SysMaintenance+0x10>
    8c38:	e24b3044 	sub	r3, fp, #68	; 0x44
    8c3c:	e2833001 	add	r3, r3, #1
    8c40:	e24b0048 	sub	r0, fp, #72	; 0x48
    8c44:	e3a02004 	mov	r2, #4
    8c48:	e1a01003 	mov	r1, r3
    8c4c:	eb001b7a 	bl	fa3c <memcp>
    8c50:	e51b3048 	ldr	r3, [fp, #-72]	; 0xffffffb8
    8c54:	e1a00003 	mov	r0, r3
    8c58:	ebffff3a 	bl	8948 <__destroy_task>
    8c5c:	e320f000 	nop	{0}
    8c60:	eaffffed 	b	8c1c <SysMaintenance+0x10>

00008c64 <task_runner>:
    8c64:	e92d4800 	push	{fp, lr}
    8c68:	e28db004 	add	fp, sp, #4
    8c6c:	e24dd008 	sub	sp, sp, #8
    8c70:	ebfffd52 	bl	81c0 <set_disable>
    8c74:	e50b0008 	str	r0, [fp, #-8]
    8c78:	e30f3ef4 	movw	r3, #65268	; 0xfef4
    8c7c:	e3403000 	movt	r3, #0
    8c80:	e5933000 	ldr	r3, [r3]
    8c84:	e5933058 	ldr	r3, [r3, #88]	; 0x58
    8c88:	e50b300c 	str	r3, [fp, #-12]
    8c8c:	e51b0008 	ldr	r0, [fp, #-8]
    8c90:	ebfffd54 	bl	81e8 <set_enable>
    8c94:	e30f3ef4 	movw	r3, #65268	; 0xfef4
    8c98:	e3403000 	movt	r3, #0
    8c9c:	e5933000 	ldr	r3, [r3]
    8ca0:	e593205c 	ldr	r2, [r3, #92]	; 0x5c
    8ca4:	e51b300c 	ldr	r3, [fp, #-12]
    8ca8:	e1a00002 	mov	r0, r2
    8cac:	e12fff33 	blx	r3
    8cb0:	ebfffe11 	bl	84fc <trmrq>
    8cb4:	e320f000 	nop	{0}
    8cb8:	e24bd004 	sub	sp, fp, #4
    8cbc:	e8bd8800 	pop	{fp, pc}

00008cc0 <initmt>:
    8cc0:	e92d4800 	push	{fp, lr}
    8cc4:	e28db004 	add	fp, sp, #4
    8cc8:	e24dd010 	sub	sp, sp, #16
    8ccc:	e50b0010 	str	r0, [fp, #-16]
    8cd0:	e50b1014 	str	r1, [fp, #-20]	; 0xffffffec
    8cd4:	e3003348 	movw	r3, #840	; 0x348
    8cd8:	e3403001 	movt	r3, #1
    8cdc:	e5933000 	ldr	r3, [r3]
    8ce0:	e3530000 	cmp	r3, #0
    8ce4:	0a000001 	beq	8cf0 <initmt+0x30>
    8ce8:	e3e03000 	mvn	r3, #0
    8cec:	ea0000f9 	b	90d8 <initmt+0x418>
    8cf0:	e51b2010 	ldr	r2, [fp, #-16]
    8cf4:	e30f3f04 	movw	r3, #65284	; 0xff04
    8cf8:	e3403000 	movt	r3, #0
    8cfc:	e5832000 	str	r2, [r3]
    8d00:	e3a000a4 	mov	r0, #164	; 0xa4
    8d04:	eb001ac2 	bl	f814 <malloc>
    8d08:	e1a03000 	mov	r3, r0
    8d0c:	e50b3008 	str	r3, [fp, #-8]
    8d10:	e51b3008 	ldr	r3, [fp, #-8]
    8d14:	e3530000 	cmp	r3, #0
    8d18:	1a000001 	bne	8d24 <initmt+0x64>
    8d1c:	e3e03000 	mvn	r3, #0
    8d20:	ea0000ec 	b	90d8 <initmt+0x418>
    8d24:	e3e03000 	mvn	r3, #0
    8d28:	e3a02000 	mov	r2, #0
    8d2c:	e3a01ffa 	mov	r1, #1000	; 0x3e8
    8d30:	e3080bf8 	movw	r0, #35832	; 0x8bf8
    8d34:	e3400000 	movt	r0, #0
    8d38:	ebfffe28 	bl	85e0 <create_task>
    8d3c:	e50b000c 	str	r0, [fp, #-12]
    8d40:	e51b300c 	ldr	r3, [fp, #-12]
    8d44:	e3530000 	cmp	r3, #0
    8d48:	aa000003 	bge	8d5c <initmt+0x9c>
    8d4c:	e51b0008 	ldr	r0, [fp, #-8]
    8d50:	eb001afb 	bl	f944 <free>
    8d54:	e3e03000 	mvn	r3, #0
    8d58:	ea0000de 	b	90d8 <initmt+0x418>
    8d5c:	e3e03000 	mvn	r3, #0
    8d60:	e3a02000 	mov	r2, #0
    8d64:	e3a01ffa 	mov	r1, #1000	; 0x3e8
    8d68:	e3080c0c 	movw	r0, #35852	; 0x8c0c
    8d6c:	e3400000 	movt	r0, #0
    8d70:	ebfffe1a 	bl	85e0 <create_task>
    8d74:	e1a02000 	mov	r2, r0
    8d78:	e30f3f18 	movw	r3, #65304	; 0xff18
    8d7c:	e3403000 	movt	r3, #0
    8d80:	e5832000 	str	r2, [r3]
    8d84:	e30f3f18 	movw	r3, #65304	; 0xff18
    8d88:	e3403000 	movt	r3, #0
    8d8c:	e5932000 	ldr	r2, [r3]
    8d90:	e30f3f38 	movw	r3, #65336	; 0xff38
    8d94:	e3403000 	movt	r3, #0
    8d98:	e7933102 	ldr	r3, [r3, r2, lsl #2]
    8d9c:	e3a02000 	mov	r2, #0
    8da0:	e5832074 	str	r2, [r3, #116]	; 0x74
    8da4:	e30f3f18 	movw	r3, #65304	; 0xff18
    8da8:	e3403000 	movt	r3, #0
    8dac:	e5933000 	ldr	r3, [r3]
    8db0:	e3530000 	cmp	r3, #0
    8db4:	aa000005 	bge	8dd0 <initmt+0x110>
    8db8:	e51b000c 	ldr	r0, [fp, #-12]
    8dbc:	ebfffee1 	bl	8948 <__destroy_task>
    8dc0:	e51b0008 	ldr	r0, [fp, #-8]
    8dc4:	eb001ade 	bl	f944 <free>
    8dc8:	e3e03000 	mvn	r3, #0
    8dcc:	ea0000c1 	b	90d8 <initmt+0x418>
    8dd0:	e30f3f18 	movw	r3, #65304	; 0xff18
    8dd4:	e3403000 	movt	r3, #0
    8dd8:	e5933000 	ldr	r3, [r3]
    8ddc:	e3a02040 	mov	r2, #64	; 0x40
    8de0:	e3a01010 	mov	r1, #16
    8de4:	e1a00003 	mov	r0, r3
    8de8:	eb000ae8 	bl	b990 <create_task_mbox>
    8dec:	e1a03000 	mov	r3, r0
    8df0:	e3530000 	cmp	r3, #0
    8df4:	0a00000a 	beq	8e24 <initmt+0x164>
    8df8:	e30f3f18 	movw	r3, #65304	; 0xff18
    8dfc:	e3403000 	movt	r3, #0
    8e00:	e5933000 	ldr	r3, [r3]
    8e04:	e1a00003 	mov	r0, r3
    8e08:	ebfffece 	bl	8948 <__destroy_task>
    8e0c:	e51b000c 	ldr	r0, [fp, #-12]
    8e10:	ebfffecc 	bl	8948 <__destroy_task>
    8e14:	e51b0008 	ldr	r0, [fp, #-8]
    8e18:	eb001ac9 	bl	f944 <free>
    8e1c:	e3e03000 	mvn	r3, #0
    8e20:	ea0000ac 	b	90d8 <initmt+0x418>
    8e24:	e51b3008 	ldr	r3, [fp, #-8]
    8e28:	e3a02ffa 	mov	r2, #1000	; 0x3e8
    8e2c:	e1c325b4 	strh	r2, [r3, #84]	; 0x54
    8e30:	e51b3008 	ldr	r3, [fp, #-8]
    8e34:	e3a02002 	mov	r2, #2
    8e38:	e1c324b8 	strh	r2, [r3, #72]	; 0x48
    8e3c:	e51b3008 	ldr	r3, [fp, #-8]
    8e40:	e3e02000 	mvn	r2, #0
    8e44:	e5832050 	str	r2, [r3, #80]	; 0x50
    8e48:	e51b3008 	ldr	r3, [fp, #-8]
    8e4c:	e3a02000 	mov	r2, #0
    8e50:	e1c324b4 	strh	r2, [r3, #68]	; 0x44
    8e54:	e30f3f38 	movw	r3, #65336	; 0xff38
    8e58:	e3403000 	movt	r3, #0
    8e5c:	e51b2008 	ldr	r2, [fp, #-8]
    8e60:	e5832000 	str	r2, [r3]
    8e64:	e30f3ef8 	movw	r3, #65272	; 0xfef8
    8e68:	e3403000 	movt	r3, #0
    8e6c:	e3a02000 	mov	r2, #0
    8e70:	e5832000 	str	r2, [r3]
    8e74:	e30f3efc 	movw	r3, #65276	; 0xfefc
    8e78:	e3403000 	movt	r3, #0
    8e7c:	e3a02000 	mov	r2, #0
    8e80:	e5832000 	str	r2, [r3]
    8e84:	e30f3ef4 	movw	r3, #65268	; 0xfef4
    8e88:	e3403000 	movt	r3, #0
    8e8c:	e51b2008 	ldr	r2, [fp, #-8]
    8e90:	e5832000 	str	r2, [r3]
    8e94:	e3a00060 	mov	r0, #96	; 0x60
    8e98:	eb0019dc 	bl	f610 <getvect>
    8e9c:	e1a02000 	mov	r2, r0
    8ea0:	e30f3ee4 	movw	r3, #65252	; 0xfee4
    8ea4:	e3403000 	movt	r3, #0
    8ea8:	e5832000 	str	r2, [r3]
    8eac:	e30a1630 	movw	r1, #42544	; 0xa630
    8eb0:	e3401000 	movt	r1, #0
    8eb4:	e3a00060 	mov	r0, #96	; 0x60
    8eb8:	eb0019af 	bl	f57c <setvect>
    8ebc:	e51b3010 	ldr	r3, [fp, #-16]
    8ec0:	e2033001 	and	r3, r3, #1
    8ec4:	e3530000 	cmp	r3, #0
    8ec8:	0a00000d 	beq	8f04 <initmt+0x244>
    8ecc:	e51b2014 	ldr	r2, [fp, #-20]	; 0xffffffec
    8ed0:	e30f3f14 	movw	r3, #65300	; 0xff14
    8ed4:	e3403000 	movt	r3, #0
    8ed8:	e5832000 	str	r2, [r3]
    8edc:	e3a00070 	mov	r0, #112	; 0x70
    8ee0:	eb0019ca 	bl	f610 <getvect>
    8ee4:	e1a02000 	mov	r2, r0
    8ee8:	e30f3ee8 	movw	r3, #65256	; 0xfee8
    8eec:	e3403000 	movt	r3, #0
    8ef0:	e5832000 	str	r2, [r3]
    8ef4:	e30b175c 	movw	r1, #46940	; 0xb75c
    8ef8:	e3401000 	movt	r1, #0
    8efc:	e3a00070 	mov	r0, #112	; 0x70
    8f00:	eb00199d 	bl	f57c <setvect>
    8f04:	e30f3f38 	movw	r3, #65336	; 0xff38
    8f08:	e3403000 	movt	r3, #0
    8f0c:	e51b200c 	ldr	r2, [fp, #-12]
    8f10:	e7933102 	ldr	r3, [r3, r2, lsl #2]
    8f14:	e3a02001 	mov	r2, #1
    8f18:	e1c324b8 	strh	r2, [r3, #72]	; 0x48
    8f1c:	e30f3f38 	movw	r3, #65336	; 0xff38
    8f20:	e3403000 	movt	r3, #0
    8f24:	e51b200c 	ldr	r2, [fp, #-12]
    8f28:	e7933102 	ldr	r3, [r3, r2, lsl #2]
    8f2c:	e30023e9 	movw	r2, #1001	; 0x3e9
    8f30:	e1c325b4 	strh	r2, [r3, #84]	; 0x54
    8f34:	e30f3f38 	movw	r3, #65336	; 0xff38
    8f38:	e3403000 	movt	r3, #0
    8f3c:	e51b200c 	ldr	r2, [fp, #-12]
    8f40:	e7933102 	ldr	r3, [r3, r2, lsl #2]
    8f44:	e3a0205f 	mov	r2, #95	; 0x5f
    8f48:	e5832040 	str	r2, [r3, #64]	; 0x40
    8f4c:	e30f3f38 	movw	r3, #65336	; 0xff38
    8f50:	e3403000 	movt	r3, #0
    8f54:	e51b200c 	ldr	r2, [fp, #-12]
    8f58:	e7932102 	ldr	r2, [r3, r2, lsl #2]
    8f5c:	e3083c64 	movw	r3, #35940	; 0x8c64
    8f60:	e3403000 	movt	r3, #0
    8f64:	e582303c 	str	r3, [r2, #60]	; 0x3c
    8f68:	e30f3f38 	movw	r3, #65336	; 0xff38
    8f6c:	e3403000 	movt	r3, #0
    8f70:	e51b200c 	ldr	r2, [fp, #-12]
    8f74:	e7933102 	ldr	r3, [r3, r2, lsl #2]
    8f78:	e5933060 	ldr	r3, [r3, #96]	; 0x60
    8f7c:	e1a00003 	mov	r0, r3
    8f80:	e30f3f38 	movw	r3, #65336	; 0xff38
    8f84:	e3403000 	movt	r3, #0
    8f88:	e51b200c 	ldr	r2, [fp, #-12]
    8f8c:	e7933102 	ldr	r3, [r3, r2, lsl #2]
    8f90:	e5932064 	ldr	r2, [r3, #100]	; 0x64
    8f94:	e30f3f38 	movw	r3, #65336	; 0xff38
    8f98:	e3403000 	movt	r3, #0
    8f9c:	e51b100c 	ldr	r1, [fp, #-12]
    8fa0:	e7933101 	ldr	r3, [r3, r1, lsl #2]
    8fa4:	e0802002 	add	r2, r0, r2
    8fa8:	e5832000 	str	r2, [r3]
    8fac:	e30f3f38 	movw	r3, #65336	; 0xff38
    8fb0:	e3403000 	movt	r3, #0
    8fb4:	e51b200c 	ldr	r2, [fp, #-12]
    8fb8:	e7933102 	ldr	r3, [r3, r2, lsl #2]
    8fbc:	e1a00003 	mov	r0, r3
    8fc0:	ebfffc95 	bl	821c <queue>
    8fc4:	e30f3f18 	movw	r3, #65304	; 0xff18
    8fc8:	e3403000 	movt	r3, #0
    8fcc:	e5932000 	ldr	r2, [r3]
    8fd0:	e30f3f38 	movw	r3, #65336	; 0xff38
    8fd4:	e3403000 	movt	r3, #0
    8fd8:	e7933102 	ldr	r3, [r3, r2, lsl #2]
    8fdc:	e3a02002 	mov	r2, #2
    8fe0:	e1c324b8 	strh	r2, [r3, #72]	; 0x48
    8fe4:	e30f3f18 	movw	r3, #65304	; 0xff18
    8fe8:	e3403000 	movt	r3, #0
    8fec:	e5932000 	ldr	r2, [r3]
    8ff0:	e30f3f38 	movw	r3, #65336	; 0xff38
    8ff4:	e3403000 	movt	r3, #0
    8ff8:	e7933102 	ldr	r3, [r3, r2, lsl #2]
    8ffc:	e3a02000 	mov	r2, #0
    9000:	e1c325b4 	strh	r2, [r3, #84]	; 0x54
    9004:	e30f3f18 	movw	r3, #65304	; 0xff18
    9008:	e3403000 	movt	r3, #0
    900c:	e5932000 	ldr	r2, [r3]
    9010:	e30f3f38 	movw	r3, #65336	; 0xff38
    9014:	e3403000 	movt	r3, #0
    9018:	e7933102 	ldr	r3, [r3, r2, lsl #2]
    901c:	e3a0205f 	mov	r2, #95	; 0x5f
    9020:	e5832040 	str	r2, [r3, #64]	; 0x40
    9024:	e30f3f18 	movw	r3, #65304	; 0xff18
    9028:	e3403000 	movt	r3, #0
    902c:	e5932000 	ldr	r2, [r3]
    9030:	e30f3f38 	movw	r3, #65336	; 0xff38
    9034:	e3403000 	movt	r3, #0
    9038:	e7932102 	ldr	r2, [r3, r2, lsl #2]
    903c:	e3083c64 	movw	r3, #35940	; 0x8c64
    9040:	e3403000 	movt	r3, #0
    9044:	e582303c 	str	r3, [r2, #60]	; 0x3c
    9048:	e30f3f18 	movw	r3, #65304	; 0xff18
    904c:	e3403000 	movt	r3, #0
    9050:	e5932000 	ldr	r2, [r3]
    9054:	e30f3f38 	movw	r3, #65336	; 0xff38
    9058:	e3403000 	movt	r3, #0
    905c:	e7933102 	ldr	r3, [r3, r2, lsl #2]
    9060:	e5933060 	ldr	r3, [r3, #96]	; 0x60
    9064:	e1a00003 	mov	r0, r3
    9068:	e30f3f18 	movw	r3, #65304	; 0xff18
    906c:	e3403000 	movt	r3, #0
    9070:	e5932000 	ldr	r2, [r3]
    9074:	e30f3f38 	movw	r3, #65336	; 0xff38
    9078:	e3403000 	movt	r3, #0
    907c:	e7933102 	ldr	r3, [r3, r2, lsl #2]
    9080:	e5932064 	ldr	r2, [r3, #100]	; 0x64
    9084:	e30f3f18 	movw	r3, #65304	; 0xff18
    9088:	e3403000 	movt	r3, #0
    908c:	e5931000 	ldr	r1, [r3]
    9090:	e30f3f38 	movw	r3, #65336	; 0xff38
    9094:	e3403000 	movt	r3, #0
    9098:	e7933101 	ldr	r3, [r3, r1, lsl #2]
    909c:	e0802002 	add	r2, r0, r2
    90a0:	e5832000 	str	r2, [r3]
    90a4:	e30f3f18 	movw	r3, #65304	; 0xff18
    90a8:	e3403000 	movt	r3, #0
    90ac:	e5932000 	ldr	r2, [r3]
    90b0:	e30f3f38 	movw	r3, #65336	; 0xff38
    90b4:	e3403000 	movt	r3, #0
    90b8:	e7933102 	ldr	r3, [r3, r2, lsl #2]
    90bc:	e1a00003 	mov	r0, r3
    90c0:	ebfffc55 	bl	821c <queue>
    90c4:	e3003348 	movw	r3, #840	; 0x348
    90c8:	e3403001 	movt	r3, #1
    90cc:	e3a02001 	mov	r2, #1
    90d0:	e5832000 	str	r2, [r3]
    90d4:	e3a03000 	mov	r3, #0
    90d8:	e1a00003 	mov	r0, r3
    90dc:	e24bd004 	sub	sp, fp, #4
    90e0:	e8bd8800 	pop	{fp, pc}

000090e4 <abortmt>:
    90e4:	e92d4800 	push	{fp, lr}
    90e8:	e28db004 	add	fp, sp, #4
    90ec:	e24dd008 	sub	sp, sp, #8
    90f0:	e3003348 	movw	r3, #840	; 0x348
    90f4:	e3403001 	movt	r3, #1
    90f8:	e5933000 	ldr	r3, [r3]
    90fc:	e3530000 	cmp	r3, #0
    9100:	0a00001a 	beq	9170 <abortmt+0x8c>
    9104:	ebfffc2d 	bl	81c0 <set_disable>
    9108:	e50b0008 	str	r0, [fp, #-8]
    910c:	e30f3ee4 	movw	r3, #65252	; 0xfee4
    9110:	e3403000 	movt	r3, #0
    9114:	e5933000 	ldr	r3, [r3]
    9118:	e1a01003 	mov	r1, r3
    911c:	e3a00060 	mov	r0, #96	; 0x60
    9120:	eb001915 	bl	f57c <setvect>
    9124:	e30f3f04 	movw	r3, #65284	; 0xff04
    9128:	e3403000 	movt	r3, #0
    912c:	e5933000 	ldr	r3, [r3]
    9130:	e2033001 	and	r3, r3, #1
    9134:	e3530000 	cmp	r3, #0
    9138:	0a000005 	beq	9154 <abortmt+0x70>
    913c:	e30f3ee8 	movw	r3, #65256	; 0xfee8
    9140:	e3403000 	movt	r3, #0
    9144:	e5933000 	ldr	r3, [r3]
    9148:	e1a01003 	mov	r1, r3
    914c:	e3a00070 	mov	r0, #112	; 0x70
    9150:	eb001909 	bl	f57c <setvect>
    9154:	e3003348 	movw	r3, #840	; 0x348
    9158:	e3403001 	movt	r3, #1
    915c:	e3a02000 	mov	r2, #0
    9160:	e5832000 	str	r2, [r3]
    9164:	e51b0008 	ldr	r0, [fp, #-8]
    9168:	ebfffc1e 	bl	81e8 <set_enable>
    916c:	ea000000 	b	9174 <abortmt+0x90>
    9170:	e320f000 	nop	{0}
    9174:	e24bd004 	sub	sp, fp, #4
    9178:	e8bd8800 	pop	{fp, pc}

0000917c <exitmt>:
    917c:	e92d4800 	push	{fp, lr}
    9180:	e28db004 	add	fp, sp, #4
    9184:	e24dd008 	sub	sp, sp, #8
    9188:	ebffffd5 	bl	90e4 <abortmt>
    918c:	e3003348 	movw	r3, #840	; 0x348
    9190:	e3403001 	movt	r3, #1
    9194:	e5933000 	ldr	r3, [r3]
    9198:	e3530000 	cmp	r3, #0
    919c:	0a00002b 	beq	9250 <exitmt+0xd4>
    91a0:	e3a03001 	mov	r3, #1
    91a4:	e50b3008 	str	r3, [fp, #-8]
    91a8:	ea000010 	b	91f0 <exitmt+0x74>
    91ac:	e30f3f38 	movw	r3, #65336	; 0xff38
    91b0:	e3403000 	movt	r3, #0
    91b4:	e51b2008 	ldr	r2, [fp, #-8]
    91b8:	e7933102 	ldr	r3, [r3, r2, lsl #2]
    91bc:	e3530000 	cmp	r3, #0
    91c0:	0a000007 	beq	91e4 <exitmt+0x68>
    91c4:	e30f3f38 	movw	r3, #65336	; 0xff38
    91c8:	e3403000 	movt	r3, #0
    91cc:	e51b2008 	ldr	r2, [fp, #-8]
    91d0:	e7933102 	ldr	r3, [r3, r2, lsl #2]
    91d4:	e3a02005 	mov	r2, #5
    91d8:	e1c324b8 	strh	r2, [r3, #72]	; 0x48
    91dc:	e51b0008 	ldr	r0, [fp, #-8]
    91e0:	ebfffe37 	bl	8ac4 <kill_task>
    91e4:	e51b3008 	ldr	r3, [fp, #-8]
    91e8:	e2833001 	add	r3, r3, #1
    91ec:	e50b3008 	str	r3, [fp, #-8]
    91f0:	e51b2008 	ldr	r2, [fp, #-8]
    91f4:	e30f3f08 	movw	r3, #65288	; 0xff08
    91f8:	e3403000 	movt	r3, #0
    91fc:	e5933000 	ldr	r3, [r3]
    9200:	e1520003 	cmp	r2, r3
    9204:	9affffe8 	bls	91ac <exitmt+0x30>
    9208:	e30f3f38 	movw	r3, #65336	; 0xff38
    920c:	e3403000 	movt	r3, #0
    9210:	e5933000 	ldr	r3, [r3]
    9214:	e1a00003 	mov	r0, r3
    9218:	eb0019c9 	bl	f944 <free>
    921c:	e30f3f38 	movw	r3, #65336	; 0xff38
    9220:	e3403000 	movt	r3, #0
    9224:	e3a02000 	mov	r2, #0
    9228:	e5832000 	str	r2, [r3]
    922c:	e30f3eb8 	movw	r3, #65208	; 0xfeb8
    9230:	e3403000 	movt	r3, #0
    9234:	e3a02001 	mov	r2, #1
    9238:	e5832000 	str	r2, [r3]
    923c:	e30f3f08 	movw	r3, #65288	; 0xff08
    9240:	e3403000 	movt	r3, #0
    9244:	e3a02000 	mov	r2, #0
    9248:	e5832000 	str	r2, [r3]
    924c:	ea000000 	b	9254 <exitmt+0xd8>
    9250:	e320f000 	nop	{0}
    9254:	e24bd004 	sub	sp, fp, #4
    9258:	e8bd8800 	pop	{fp, pc}

0000925c <sptsk>:
    925c:	e92d4800 	push	{fp, lr}
    9260:	e28db004 	add	fp, sp, #4
    9264:	e24dd010 	sub	sp, sp, #16
    9268:	e50b0010 	str	r0, [fp, #-16]
    926c:	e50b1014 	str	r1, [fp, #-20]	; 0xffffffec
    9270:	e51b3010 	ldr	r3, [fp, #-16]
    9274:	e3530000 	cmp	r3, #0
    9278:	da00000a 	ble	92a8 <sptsk+0x4c>
    927c:	e51b2010 	ldr	r2, [fp, #-16]
    9280:	e30f3f08 	movw	r3, #65288	; 0xff08
    9284:	e3403000 	movt	r3, #0
    9288:	e5933000 	ldr	r3, [r3]
    928c:	e1520003 	cmp	r2, r3
    9290:	8a000004 	bhi	92a8 <sptsk+0x4c>
    9294:	e30f3eb8 	movw	r3, #65208	; 0xfeb8
    9298:	e3403000 	movt	r3, #0
    929c:	e5933000 	ldr	r3, [r3]
    92a0:	e3530001 	cmp	r3, #1
    92a4:	1a000001 	bne	92b0 <sptsk+0x54>
    92a8:	e3a03001 	mov	r3, #1
    92ac:	ea00004f 	b	93f0 <sptsk+0x194>
    92b0:	e30f3f38 	movw	r3, #65336	; 0xff38
    92b4:	e3403000 	movt	r3, #0
    92b8:	e51b2010 	ldr	r2, [fp, #-16]
    92bc:	e7933102 	ldr	r3, [r3, r2, lsl #2]
    92c0:	e3530000 	cmp	r3, #0
    92c4:	1a000001 	bne	92d0 <sptsk+0x74>
    92c8:	e3a03002 	mov	r3, #2
    92cc:	ea000047 	b	93f0 <sptsk+0x194>
    92d0:	e30f3f38 	movw	r3, #65336	; 0xff38
    92d4:	e3403000 	movt	r3, #0
    92d8:	e51b2010 	ldr	r2, [fp, #-16]
    92dc:	e7933102 	ldr	r3, [r3, r2, lsl #2]
    92e0:	e1d334b8 	ldrh	r3, [r3, #72]	; 0x48
    92e4:	e3530005 	cmp	r3, #5
    92e8:	0a000001 	beq	92f4 <sptsk+0x98>
    92ec:	e3a03003 	mov	r3, #3
    92f0:	ea00003e 	b	93f0 <sptsk+0x194>
    92f4:	e51b3014 	ldr	r3, [fp, #-20]	; 0xffffffec
    92f8:	e3530000 	cmp	r3, #0
    92fc:	da000002 	ble	930c <sptsk+0xb0>
    9300:	e51b3014 	ldr	r3, [fp, #-20]	; 0xffffffec
    9304:	e3530ffa 	cmp	r3, #1000	; 0x3e8
    9308:	da000001 	ble	9314 <sptsk+0xb8>
    930c:	e3a03004 	mov	r3, #4
    9310:	ea000036 	b	93f0 <sptsk+0x194>
    9314:	e30f3f38 	movw	r3, #65336	; 0xff38
    9318:	e3403000 	movt	r3, #0
    931c:	e51b2010 	ldr	r2, [fp, #-16]
    9320:	e7933102 	ldr	r3, [r3, r2, lsl #2]
    9324:	e3a02002 	mov	r2, #2
    9328:	e1c324b8 	strh	r2, [r3, #72]	; 0x48
    932c:	e30f3f38 	movw	r3, #65336	; 0xff38
    9330:	e3403000 	movt	r3, #0
    9334:	e51b2010 	ldr	r2, [fp, #-16]
    9338:	e7933102 	ldr	r3, [r3, r2, lsl #2]
    933c:	e51b2014 	ldr	r2, [fp, #-20]	; 0xffffffec
    9340:	e6ff2072 	uxth	r2, r2
    9344:	e1c325b4 	strh	r2, [r3, #84]	; 0x54
    9348:	e30f3f38 	movw	r3, #65336	; 0xff38
    934c:	e3403000 	movt	r3, #0
    9350:	e51b2010 	ldr	r2, [fp, #-16]
    9354:	e7933102 	ldr	r3, [r3, r2, lsl #2]
    9358:	e3a0205f 	mov	r2, #95	; 0x5f
    935c:	e5832040 	str	r2, [r3, #64]	; 0x40
    9360:	e30f3f38 	movw	r3, #65336	; 0xff38
    9364:	e3403000 	movt	r3, #0
    9368:	e51b2010 	ldr	r2, [fp, #-16]
    936c:	e7932102 	ldr	r2, [r3, r2, lsl #2]
    9370:	e3083c64 	movw	r3, #35940	; 0x8c64
    9374:	e3403000 	movt	r3, #0
    9378:	e582303c 	str	r3, [r2, #60]	; 0x3c
    937c:	e30f3f38 	movw	r3, #65336	; 0xff38
    9380:	e3403000 	movt	r3, #0
    9384:	e51b2010 	ldr	r2, [fp, #-16]
    9388:	e7933102 	ldr	r3, [r3, r2, lsl #2]
    938c:	e5933060 	ldr	r3, [r3, #96]	; 0x60
    9390:	e1a00003 	mov	r0, r3
    9394:	e30f3f38 	movw	r3, #65336	; 0xff38
    9398:	e3403000 	movt	r3, #0
    939c:	e51b2010 	ldr	r2, [fp, #-16]
    93a0:	e7933102 	ldr	r3, [r3, r2, lsl #2]
    93a4:	e5932064 	ldr	r2, [r3, #100]	; 0x64
    93a8:	e30f3f38 	movw	r3, #65336	; 0xff38
    93ac:	e3403000 	movt	r3, #0
    93b0:	e51b1010 	ldr	r1, [fp, #-16]
    93b4:	e7933101 	ldr	r3, [r3, r1, lsl #2]
    93b8:	e0802002 	add	r2, r0, r2
    93bc:	e5832000 	str	r2, [r3]
    93c0:	ebfffb7e 	bl	81c0 <set_disable>
    93c4:	e50b0008 	str	r0, [fp, #-8]
    93c8:	e30f3f38 	movw	r3, #65336	; 0xff38
    93cc:	e3403000 	movt	r3, #0
    93d0:	e51b2010 	ldr	r2, [fp, #-16]
    93d4:	e7933102 	ldr	r3, [r3, r2, lsl #2]
    93d8:	e1a00003 	mov	r0, r3
    93dc:	ebfffb8e 	bl	821c <queue>
    93e0:	e51b0008 	ldr	r0, [fp, #-8]
    93e4:	ebfffb7f 	bl	81e8 <set_enable>
    93e8:	ebfffc27 	bl	848c <dispatch>
    93ec:	e3a03000 	mov	r3, #0
    93f0:	e1a00003 	mov	r0, r3
    93f4:	e24bd004 	sub	sp, fp, #4
    93f8:	e8bd8800 	pop	{fp, pc}

000093fc <conttsk>:
    93fc:	e92d4800 	push	{fp, lr}
    9400:	e28db004 	add	fp, sp, #4
    9404:	e24dd010 	sub	sp, sp, #16
    9408:	e50b0010 	str	r0, [fp, #-16]
    940c:	e51b3010 	ldr	r3, [fp, #-16]
    9410:	e3530000 	cmp	r3, #0
    9414:	da00000a 	ble	9444 <conttsk+0x48>
    9418:	e51b2010 	ldr	r2, [fp, #-16]
    941c:	e30f3f08 	movw	r3, #65288	; 0xff08
    9420:	e3403000 	movt	r3, #0
    9424:	e5933000 	ldr	r3, [r3]
    9428:	e1520003 	cmp	r2, r3
    942c:	8a000004 	bhi	9444 <conttsk+0x48>
    9430:	e30f3eb8 	movw	r3, #65208	; 0xfeb8
    9434:	e3403000 	movt	r3, #0
    9438:	e5933000 	ldr	r3, [r3]
    943c:	e3530001 	cmp	r3, #1
    9440:	1a000001 	bne	944c <conttsk+0x50>
    9444:	e3a03001 	mov	r3, #1
    9448:	ea000022 	b	94d8 <conttsk+0xdc>
    944c:	e30f3f38 	movw	r3, #65336	; 0xff38
    9450:	e3403000 	movt	r3, #0
    9454:	e51b2010 	ldr	r2, [fp, #-16]
    9458:	e7933102 	ldr	r3, [r3, r2, lsl #2]
    945c:	e3530000 	cmp	r3, #0
    9460:	1a000001 	bne	946c <conttsk+0x70>
    9464:	e3a03002 	mov	r3, #2
    9468:	ea00001a 	b	94d8 <conttsk+0xdc>
    946c:	e30f3f38 	movw	r3, #65336	; 0xff38
    9470:	e3403000 	movt	r3, #0
    9474:	e51b2010 	ldr	r2, [fp, #-16]
    9478:	e7933102 	ldr	r3, [r3, r2, lsl #2]
    947c:	e1d334b8 	ldrh	r3, [r3, #72]	; 0x48
    9480:	e3530005 	cmp	r3, #5
    9484:	0a000001 	beq	9490 <conttsk+0x94>
    9488:	e3a03003 	mov	r3, #3
    948c:	ea000011 	b	94d8 <conttsk+0xdc>
    9490:	e30f3f38 	movw	r3, #65336	; 0xff38
    9494:	e3403000 	movt	r3, #0
    9498:	e51b2010 	ldr	r2, [fp, #-16]
    949c:	e7933102 	ldr	r3, [r3, r2, lsl #2]
    94a0:	e3a02002 	mov	r2, #2
    94a4:	e1c324b8 	strh	r2, [r3, #72]	; 0x48
    94a8:	ebfffb44 	bl	81c0 <set_disable>
    94ac:	e50b0008 	str	r0, [fp, #-8]
    94b0:	e30f3f38 	movw	r3, #65336	; 0xff38
    94b4:	e3403000 	movt	r3, #0
    94b8:	e51b2010 	ldr	r2, [fp, #-16]
    94bc:	e7933102 	ldr	r3, [r3, r2, lsl #2]
    94c0:	e1a00003 	mov	r0, r3
    94c4:	ebfffb54 	bl	821c <queue>
    94c8:	e51b0008 	ldr	r0, [fp, #-8]
    94cc:	ebfffb45 	bl	81e8 <set_enable>
    94d0:	ebfffbed 	bl	848c <dispatch>
    94d4:	e3a03000 	mov	r3, #0
    94d8:	e1a00003 	mov	r0, r3
    94dc:	e24bd004 	sub	sp, fp, #4
    94e0:	e8bd8800 	pop	{fp, pc}

000094e4 <getparams>:
    94e4:	e52db004 	push	{fp}		; (str fp, [sp, #-4]!)
    94e8:	e28db000 	add	fp, sp, #0
    94ec:	e30f3ef4 	movw	r3, #65268	; 0xfef4
    94f0:	e3403000 	movt	r3, #0
    94f4:	e5933000 	ldr	r3, [r3]
    94f8:	e3530000 	cmp	r3, #0
    94fc:	0a000004 	beq	9514 <getparams+0x30>
    9500:	e30f3ef4 	movw	r3, #65268	; 0xfef4
    9504:	e3403000 	movt	r3, #0
    9508:	e5933000 	ldr	r3, [r3]
    950c:	e593305c 	ldr	r3, [r3, #92]	; 0x5c
    9510:	ea000000 	b	9518 <getparams+0x34>
    9514:	e3a03000 	mov	r3, #0
    9518:	e1a00003 	mov	r0, r3
    951c:	e28bd000 	add	sp, fp, #0
    9520:	e49db004 	pop	{fp}		; (ldr fp, [sp], #4)
    9524:	e12fff1e 	bx	lr

00009528 <dfsm>:
    9528:	e52db004 	push	{fp}		; (str fp, [sp, #-4]!)
    952c:	e28db000 	add	fp, sp, #0
    9530:	e24dd00c 	sub	sp, sp, #12
    9534:	e50b0008 	str	r0, [fp, #-8]
    9538:	e50b100c 	str	r1, [fp, #-12]
    953c:	e51b3008 	ldr	r3, [fp, #-8]
    9540:	e51b200c 	ldr	r2, [fp, #-12]
    9544:	e5832000 	str	r2, [r3]
    9548:	e51b3008 	ldr	r3, [fp, #-8]
    954c:	e3a02000 	mov	r2, #0
    9550:	e5832008 	str	r2, [r3, #8]
    9554:	e51b3008 	ldr	r3, [fp, #-8]
    9558:	e5932008 	ldr	r2, [r3, #8]
    955c:	e51b3008 	ldr	r3, [fp, #-8]
    9560:	e5832004 	str	r2, [r3, #4]
    9564:	e320f000 	nop	{0}
    9568:	e28bd000 	add	sp, fp, #0
    956c:	e49db004 	pop	{fp}		; (ldr fp, [sp], #4)
    9570:	e12fff1e 	bx	lr

00009574 <rsvsm>:
    9574:	e92d4800 	push	{fp, lr}
    9578:	e28db004 	add	fp, sp, #4
    957c:	e24dd018 	sub	sp, sp, #24
    9580:	e50b0018 	str	r0, [fp, #-24]	; 0xffffffe8
    9584:	e3a03000 	mov	r3, #0
    9588:	e50b3008 	str	r3, [fp, #-8]
    958c:	ebfffb0b 	bl	81c0 <set_disable>
    9590:	e50b000c 	str	r0, [fp, #-12]
    9594:	e51b3018 	ldr	r3, [fp, #-24]	; 0xffffffe8
    9598:	e5933000 	ldr	r3, [r3]
    959c:	e2432001 	sub	r2, r3, #1
    95a0:	e51b3018 	ldr	r3, [fp, #-24]	; 0xffffffe8
    95a4:	e5832000 	str	r2, [r3]
    95a8:	e51b3018 	ldr	r3, [fp, #-24]	; 0xffffffe8
    95ac:	e5933000 	ldr	r3, [r3]
    95b0:	e3530000 	cmp	r3, #0
    95b4:	aa000036 	bge	9694 <rsvsm+0x120>
    95b8:	e30f3ef4 	movw	r3, #65268	; 0xfef4
    95bc:	e3403000 	movt	r3, #0
    95c0:	e5933000 	ldr	r3, [r3]
    95c4:	e50b3010 	str	r3, [fp, #-16]
    95c8:	e51b3010 	ldr	r3, [fp, #-16]
    95cc:	e3a02000 	mov	r2, #0
    95d0:	e5832070 	str	r2, [r3, #112]	; 0x70
    95d4:	e51b3018 	ldr	r3, [fp, #-24]	; 0xffffffe8
    95d8:	e5933004 	ldr	r3, [r3, #4]
    95dc:	e3530000 	cmp	r3, #0
    95e0:	1a000007 	bne	9604 <rsvsm+0x90>
    95e4:	e51b3018 	ldr	r3, [fp, #-24]	; 0xffffffe8
    95e8:	e51b2010 	ldr	r2, [fp, #-16]
    95ec:	e5832008 	str	r2, [r3, #8]
    95f0:	e51b3018 	ldr	r3, [fp, #-24]	; 0xffffffe8
    95f4:	e5932008 	ldr	r2, [r3, #8]
    95f8:	e51b3018 	ldr	r3, [fp, #-24]	; 0xffffffe8
    95fc:	e5832004 	str	r2, [r3, #4]
    9600:	ea000006 	b	9620 <rsvsm+0xac>
    9604:	e51b3018 	ldr	r3, [fp, #-24]	; 0xffffffe8
    9608:	e5933008 	ldr	r3, [r3, #8]
    960c:	e51b2010 	ldr	r2, [fp, #-16]
    9610:	e5832070 	str	r2, [r3, #112]	; 0x70
    9614:	e51b3018 	ldr	r3, [fp, #-24]	; 0xffffffe8
    9618:	e51b2010 	ldr	r2, [fp, #-16]
    961c:	e5832008 	str	r2, [r3, #8]
    9620:	e30f3ef4 	movw	r3, #65268	; 0xfef4
    9624:	e3403000 	movt	r3, #0
    9628:	e5933000 	ldr	r3, [r3]
    962c:	e3a02000 	mov	r2, #0
    9630:	e1c324ba 	strh	r2, [r3, #74]	; 0x4a
    9634:	e30f3ef4 	movw	r3, #65268	; 0xfef4
    9638:	e3403000 	movt	r3, #0
    963c:	e5933000 	ldr	r3, [r3]
    9640:	e3a02003 	mov	r2, #3
    9644:	e1c324b8 	strh	r2, [r3, #72]	; 0x48
    9648:	e51b000c 	ldr	r0, [fp, #-12]
    964c:	ebfffae5 	bl	81e8 <set_enable>
    9650:	ea000006 	b	9670 <rsvsm+0xfc>
    9654:	e30f3f04 	movw	r3, #65284	; 0xff04
    9658:	e3403000 	movt	r3, #0
    965c:	e5933000 	ldr	r3, [r3]
    9660:	e2033002 	and	r3, r3, #2
    9664:	e3530000 	cmp	r3, #0
    9668:	0a000000 	beq	9670 <rsvsm+0xfc>
    966c:	ef000060 	svc	0x00000060
    9670:	e30f3ef4 	movw	r3, #65268	; 0xfef4
    9674:	e3403000 	movt	r3, #0
    9678:	e5933000 	ldr	r3, [r3]
    967c:	e1d334b8 	ldrh	r3, [r3, #72]	; 0x48
    9680:	e3530003 	cmp	r3, #3
    9684:	0afffff2 	beq	9654 <rsvsm+0xe0>
    9688:	ebfffacc 	bl	81c0 <set_disable>
    968c:	e3a03001 	mov	r3, #1
    9690:	e50b3008 	str	r3, [fp, #-8]
    9694:	e51b000c 	ldr	r0, [fp, #-12]
    9698:	ebfffad2 	bl	81e8 <set_enable>
    969c:	e51b3008 	ldr	r3, [fp, #-8]
    96a0:	e1a00003 	mov	r0, r3
    96a4:	e24bd004 	sub	sp, fp, #4
    96a8:	e8bd8800 	pop	{fp, pc}

000096ac <tryrsvsm>:
    96ac:	e92d4800 	push	{fp, lr}
    96b0:	e28db004 	add	fp, sp, #4
    96b4:	e24dd010 	sub	sp, sp, #16
    96b8:	e50b0010 	str	r0, [fp, #-16]
    96bc:	e3a03000 	mov	r3, #0
    96c0:	e50b3008 	str	r3, [fp, #-8]
    96c4:	ebfffabd 	bl	81c0 <set_disable>
    96c8:	e50b000c 	str	r0, [fp, #-12]
    96cc:	e51b3010 	ldr	r3, [fp, #-16]
    96d0:	e5933000 	ldr	r3, [r3]
    96d4:	e3530000 	cmp	r3, #0
    96d8:	da000006 	ble	96f8 <tryrsvsm+0x4c>
    96dc:	e51b3010 	ldr	r3, [fp, #-16]
    96e0:	e5933000 	ldr	r3, [r3]
    96e4:	e2432001 	sub	r2, r3, #1
    96e8:	e51b3010 	ldr	r3, [fp, #-16]
    96ec:	e5832000 	str	r2, [r3]
    96f0:	e3a03001 	mov	r3, #1
    96f4:	e50b3008 	str	r3, [fp, #-8]
    96f8:	e51b000c 	ldr	r0, [fp, #-12]
    96fc:	ebfffab9 	bl	81e8 <set_enable>
    9700:	e51b3008 	ldr	r3, [fp, #-8]
    9704:	e1a00003 	mov	r0, r3
    9708:	e24bd004 	sub	sp, fp, #4
    970c:	e8bd8800 	pop	{fp, pc}

00009710 <rlsm>:
    9710:	e92d4800 	push	{fp, lr}
    9714:	e28db004 	add	fp, sp, #4
    9718:	e24dd018 	sub	sp, sp, #24
    971c:	e50b0018 	str	r0, [fp, #-24]	; 0xffffffe8
    9720:	e3a03000 	mov	r3, #0
    9724:	e50b3008 	str	r3, [fp, #-8]
    9728:	ebfffaa4 	bl	81c0 <set_disable>
    972c:	e50b000c 	str	r0, [fp, #-12]
    9730:	e51b3018 	ldr	r3, [fp, #-24]	; 0xffffffe8
    9734:	e5933000 	ldr	r3, [r3]
    9738:	e2832001 	add	r2, r3, #1
    973c:	e51b3018 	ldr	r3, [fp, #-24]	; 0xffffffe8
    9740:	e5832000 	str	r2, [r3]
    9744:	e51b3018 	ldr	r3, [fp, #-24]	; 0xffffffe8
    9748:	e5933000 	ldr	r3, [r3]
    974c:	e3530000 	cmp	r3, #0
    9750:	ca000036 	bgt	9830 <rlsm+0x120>
    9754:	e51b3018 	ldr	r3, [fp, #-24]	; 0xffffffe8
    9758:	e5933004 	ldr	r3, [r3, #4]
    975c:	e3530000 	cmp	r3, #0
    9760:	0a000032 	beq	9830 <rlsm+0x120>
    9764:	e51b3018 	ldr	r3, [fp, #-24]	; 0xffffffe8
    9768:	e5933004 	ldr	r3, [r3, #4]
    976c:	e50b3010 	str	r3, [fp, #-16]
    9770:	e51b3010 	ldr	r3, [fp, #-16]
    9774:	e1d334b8 	ldrh	r3, [r3, #72]	; 0x48
    9778:	e3530004 	cmp	r3, #4
    977c:	1a000005 	bne	9798 <rlsm+0x88>
    9780:	e51b3010 	ldr	r3, [fp, #-16]
    9784:	e3a02002 	mov	r2, #2
    9788:	e1c324b8 	strh	r2, [r3, #72]	; 0x48
    978c:	e51b0010 	ldr	r0, [fp, #-16]
    9790:	ebfffaa1 	bl	821c <queue>
    9794:	ea000006 	b	97b4 <rlsm+0xa4>
    9798:	e51b3010 	ldr	r3, [fp, #-16]
    979c:	e1d334b8 	ldrh	r3, [r3, #72]	; 0x48
    97a0:	e3530003 	cmp	r3, #3
    97a4:	1a000002 	bne	97b4 <rlsm+0xa4>
    97a8:	e51b3010 	ldr	r3, [fp, #-16]
    97ac:	e3a02002 	mov	r2, #2
    97b0:	e1c324b8 	strh	r2, [r3, #72]	; 0x48
    97b4:	e51b3018 	ldr	r3, [fp, #-24]	; 0xffffffe8
    97b8:	e5932004 	ldr	r2, [r3, #4]
    97bc:	e51b3018 	ldr	r3, [fp, #-24]	; 0xffffffe8
    97c0:	e5933008 	ldr	r3, [r3, #8]
    97c4:	e1520003 	cmp	r2, r3
    97c8:	1a000007 	bne	97ec <rlsm+0xdc>
    97cc:	e51b3018 	ldr	r3, [fp, #-24]	; 0xffffffe8
    97d0:	e3a02000 	mov	r2, #0
    97d4:	e5832008 	str	r2, [r3, #8]
    97d8:	e51b3018 	ldr	r3, [fp, #-24]	; 0xffffffe8
    97dc:	e5932008 	ldr	r2, [r3, #8]
    97e0:	e51b3018 	ldr	r3, [fp, #-24]	; 0xffffffe8
    97e4:	e5832004 	str	r2, [r3, #4]
    97e8:	ea000004 	b	9800 <rlsm+0xf0>
    97ec:	e51b3018 	ldr	r3, [fp, #-24]	; 0xffffffe8
    97f0:	e5933004 	ldr	r3, [r3, #4]
    97f4:	e5932070 	ldr	r2, [r3, #112]	; 0x70
    97f8:	e51b3018 	ldr	r3, [fp, #-24]	; 0xffffffe8
    97fc:	e5832004 	str	r2, [r3, #4]
    9800:	e30f3f04 	movw	r3, #65284	; 0xff04
    9804:	e3403000 	movt	r3, #0
    9808:	e5933000 	ldr	r3, [r3]
    980c:	e2033002 	and	r3, r3, #2
    9810:	e3530000 	cmp	r3, #0
    9814:	0a000003 	beq	9828 <rlsm+0x118>
    9818:	e51b000c 	ldr	r0, [fp, #-12]
    981c:	ebfffa71 	bl	81e8 <set_enable>
    9820:	ebfffb19 	bl	848c <dispatch>
    9824:	f10c0080 	cpsid	i
    9828:	e3a03001 	mov	r3, #1
    982c:	e50b3008 	str	r3, [fp, #-8]
    9830:	e51b000c 	ldr	r0, [fp, #-12]
    9834:	ebfffa6b 	bl	81e8 <set_enable>
    9838:	e51b3008 	ldr	r3, [fp, #-8]
    983c:	e1a00003 	mov	r0, r3
    9840:	e24bd004 	sub	sp, fp, #4
    9844:	e8bd8800 	pop	{fp, pc}

00009848 <rlsm_count>:
    9848:	e92d4800 	push	{fp, lr}
    984c:	e28db004 	add	fp, sp, #4
    9850:	e24dd018 	sub	sp, sp, #24
    9854:	e50b0018 	str	r0, [fp, #-24]	; 0xffffffe8
    9858:	e50b101c 	str	r1, [fp, #-28]	; 0xffffffe4
    985c:	e3a03000 	mov	r3, #0
    9860:	e50b300c 	str	r3, [fp, #-12]
    9864:	e3a03000 	mov	r3, #0
    9868:	e50b3008 	str	r3, [fp, #-8]
    986c:	ea000046 	b	998c <rlsm_count+0x144>
    9870:	ebfffa52 	bl	81c0 <set_disable>
    9874:	e50b0010 	str	r0, [fp, #-16]
    9878:	e51b3018 	ldr	r3, [fp, #-24]	; 0xffffffe8
    987c:	e5933000 	ldr	r3, [r3]
    9880:	e2832001 	add	r2, r3, #1
    9884:	e51b3018 	ldr	r3, [fp, #-24]	; 0xffffffe8
    9888:	e5832000 	str	r2, [r3]
    988c:	e51b3018 	ldr	r3, [fp, #-24]	; 0xffffffe8
    9890:	e5933000 	ldr	r3, [r3]
    9894:	e3530000 	cmp	r3, #0
    9898:	ca000036 	bgt	9978 <rlsm_count+0x130>
    989c:	e51b3018 	ldr	r3, [fp, #-24]	; 0xffffffe8
    98a0:	e5933004 	ldr	r3, [r3, #4]
    98a4:	e3530000 	cmp	r3, #0
    98a8:	0a000032 	beq	9978 <rlsm_count+0x130>
    98ac:	e51b3018 	ldr	r3, [fp, #-24]	; 0xffffffe8
    98b0:	e5933004 	ldr	r3, [r3, #4]
    98b4:	e50b3014 	str	r3, [fp, #-20]	; 0xffffffec
    98b8:	e51b3014 	ldr	r3, [fp, #-20]	; 0xffffffec
    98bc:	e1d334b8 	ldrh	r3, [r3, #72]	; 0x48
    98c0:	e3530004 	cmp	r3, #4
    98c4:	1a000005 	bne	98e0 <rlsm_count+0x98>
    98c8:	e51b3014 	ldr	r3, [fp, #-20]	; 0xffffffec
    98cc:	e3a02002 	mov	r2, #2
    98d0:	e1c324b8 	strh	r2, [r3, #72]	; 0x48
    98d4:	e51b0014 	ldr	r0, [fp, #-20]	; 0xffffffec
    98d8:	ebfffa4f 	bl	821c <queue>
    98dc:	ea000006 	b	98fc <rlsm_count+0xb4>
    98e0:	e51b3014 	ldr	r3, [fp, #-20]	; 0xffffffec
    98e4:	e1d334b8 	ldrh	r3, [r3, #72]	; 0x48
    98e8:	e3530003 	cmp	r3, #3
    98ec:	1a000002 	bne	98fc <rlsm_count+0xb4>
    98f0:	e51b3014 	ldr	r3, [fp, #-20]	; 0xffffffec
    98f4:	e3a02002 	mov	r2, #2
    98f8:	e1c324b8 	strh	r2, [r3, #72]	; 0x48
    98fc:	e51b3018 	ldr	r3, [fp, #-24]	; 0xffffffe8
    9900:	e5932004 	ldr	r2, [r3, #4]
    9904:	e51b3018 	ldr	r3, [fp, #-24]	; 0xffffffe8
    9908:	e5933008 	ldr	r3, [r3, #8]
    990c:	e1520003 	cmp	r2, r3
    9910:	1a000007 	bne	9934 <rlsm_count+0xec>
    9914:	e51b3018 	ldr	r3, [fp, #-24]	; 0xffffffe8
    9918:	e3a02000 	mov	r2, #0
    991c:	e5832008 	str	r2, [r3, #8]
    9920:	e51b3018 	ldr	r3, [fp, #-24]	; 0xffffffe8
    9924:	e5932008 	ldr	r2, [r3, #8]
    9928:	e51b3018 	ldr	r3, [fp, #-24]	; 0xffffffe8
    992c:	e5832004 	str	r2, [r3, #4]
    9930:	ea000004 	b	9948 <rlsm_count+0x100>
    9934:	e51b3018 	ldr	r3, [fp, #-24]	; 0xffffffe8
    9938:	e5933004 	ldr	r3, [r3, #4]
    993c:	e5932070 	ldr	r2, [r3, #112]	; 0x70
    9940:	e51b3018 	ldr	r3, [fp, #-24]	; 0xffffffe8
    9944:	e5832004 	str	r2, [r3, #4]
    9948:	e30f3f04 	movw	r3, #65284	; 0xff04
    994c:	e3403000 	movt	r3, #0
    9950:	e5933000 	ldr	r3, [r3]
    9954:	e2033002 	and	r3, r3, #2
    9958:	e3530000 	cmp	r3, #0
    995c:	0a000003 	beq	9970 <rlsm_count+0x128>
    9960:	e51b0010 	ldr	r0, [fp, #-16]
    9964:	ebfffa1f 	bl	81e8 <set_enable>
    9968:	ebfffac7 	bl	848c <dispatch>
    996c:	f10c0080 	cpsid	i
    9970:	e3a03001 	mov	r3, #1
    9974:	e50b300c 	str	r3, [fp, #-12]
    9978:	e51b0010 	ldr	r0, [fp, #-16]
    997c:	ebfffa19 	bl	81e8 <set_enable>
    9980:	e51b3008 	ldr	r3, [fp, #-8]
    9984:	e2833001 	add	r3, r3, #1
    9988:	e50b3008 	str	r3, [fp, #-8]
    998c:	e51b2008 	ldr	r2, [fp, #-8]
    9990:	e51b301c 	ldr	r3, [fp, #-28]	; 0xffffffe4
    9994:	e1520003 	cmp	r2, r3
    9998:	baffffb4 	blt	9870 <rlsm_count+0x28>
    999c:	e51b300c 	ldr	r3, [fp, #-12]
    99a0:	e1a00003 	mov	r0, r3
    99a4:	e24bd004 	sub	sp, fp, #4
    99a8:	e8bd8800 	pop	{fp, pc}

000099ac <init_critsec>:
    99ac:	e52db004 	push	{fp}		; (str fp, [sp, #-4]!)
    99b0:	e28db000 	add	fp, sp, #0
    99b4:	e24dd00c 	sub	sp, sp, #12
    99b8:	e50b0008 	str	r0, [fp, #-8]
    99bc:	e51b3008 	ldr	r3, [fp, #-8]
    99c0:	e3a02001 	mov	r2, #1
    99c4:	e5832000 	str	r2, [r3]
    99c8:	e51b3008 	ldr	r3, [fp, #-8]
    99cc:	e3a02000 	mov	r2, #0
    99d0:	e5832008 	str	r2, [r3, #8]
    99d4:	e51b3008 	ldr	r3, [fp, #-8]
    99d8:	e5932008 	ldr	r2, [r3, #8]
    99dc:	e51b3008 	ldr	r3, [fp, #-8]
    99e0:	e5832004 	str	r2, [r3, #4]
    99e4:	e320f000 	nop	{0}
    99e8:	e28bd000 	add	sp, fp, #0
    99ec:	e49db004 	pop	{fp}		; (ldr fp, [sp], #4)
    99f0:	e12fff1e 	bx	lr

000099f4 <enter_critsec>:
    99f4:	e92d4800 	push	{fp, lr}
    99f8:	e28db004 	add	fp, sp, #4
    99fc:	e24dd008 	sub	sp, sp, #8
    9a00:	e50b0008 	str	r0, [fp, #-8]
    9a04:	e51b0008 	ldr	r0, [fp, #-8]
    9a08:	ebfffed9 	bl	9574 <rsvsm>
    9a0c:	e1a03000 	mov	r3, r0
    9a10:	e1a00003 	mov	r0, r3
    9a14:	e24bd004 	sub	sp, fp, #4
    9a18:	e8bd8800 	pop	{fp, pc}

00009a1c <try_critsec>:
    9a1c:	e92d4800 	push	{fp, lr}
    9a20:	e28db004 	add	fp, sp, #4
    9a24:	e24dd010 	sub	sp, sp, #16
    9a28:	e50b0010 	str	r0, [fp, #-16]
    9a2c:	e3a03000 	mov	r3, #0
    9a30:	e50b3008 	str	r3, [fp, #-8]
    9a34:	ebfff9e1 	bl	81c0 <set_disable>
    9a38:	e50b000c 	str	r0, [fp, #-12]
    9a3c:	e51b3010 	ldr	r3, [fp, #-16]
    9a40:	e5933000 	ldr	r3, [r3]
    9a44:	e3530000 	cmp	r3, #0
    9a48:	ca000001 	bgt	9a54 <try_critsec+0x38>
    9a4c:	e3a03001 	mov	r3, #1
    9a50:	e50b3008 	str	r3, [fp, #-8]
    9a54:	e51b000c 	ldr	r0, [fp, #-12]
    9a58:	ebfff9e2 	bl	81e8 <set_enable>
    9a5c:	e51b3008 	ldr	r3, [fp, #-8]
    9a60:	e1a00003 	mov	r0, r3
    9a64:	e24bd004 	sub	sp, fp, #4
    9a68:	e8bd8800 	pop	{fp, pc}

00009a6c <leave_critsec>:
    9a6c:	e92d4800 	push	{fp, lr}
    9a70:	e28db004 	add	fp, sp, #4
    9a74:	e24dd018 	sub	sp, sp, #24
    9a78:	e50b0018 	str	r0, [fp, #-24]	; 0xffffffe8
    9a7c:	e3a03000 	mov	r3, #0
    9a80:	e50b3008 	str	r3, [fp, #-8]
    9a84:	ebfff9cd 	bl	81c0 <set_disable>
    9a88:	e50b000c 	str	r0, [fp, #-12]
    9a8c:	e51b3018 	ldr	r3, [fp, #-24]	; 0xffffffe8
    9a90:	e5933000 	ldr	r3, [r3]
    9a94:	e3530000 	cmp	r3, #0
    9a98:	ca000041 	bgt	9ba4 <leave_critsec+0x138>
    9a9c:	e51b3018 	ldr	r3, [fp, #-24]	; 0xffffffe8
    9aa0:	e5933000 	ldr	r3, [r3]
    9aa4:	e2832001 	add	r2, r3, #1
    9aa8:	e51b3018 	ldr	r3, [fp, #-24]	; 0xffffffe8
    9aac:	e5832000 	str	r2, [r3]
    9ab0:	e51b3018 	ldr	r3, [fp, #-24]	; 0xffffffe8
    9ab4:	e5933000 	ldr	r3, [r3]
    9ab8:	e3530000 	cmp	r3, #0
    9abc:	ca000036 	bgt	9b9c <leave_critsec+0x130>
    9ac0:	e51b3018 	ldr	r3, [fp, #-24]	; 0xffffffe8
    9ac4:	e5933004 	ldr	r3, [r3, #4]
    9ac8:	e3530000 	cmp	r3, #0
    9acc:	0a000032 	beq	9b9c <leave_critsec+0x130>
    9ad0:	e51b3018 	ldr	r3, [fp, #-24]	; 0xffffffe8
    9ad4:	e5933004 	ldr	r3, [r3, #4]
    9ad8:	e50b3010 	str	r3, [fp, #-16]
    9adc:	e51b3010 	ldr	r3, [fp, #-16]
    9ae0:	e1d334b8 	ldrh	r3, [r3, #72]	; 0x48
    9ae4:	e3530004 	cmp	r3, #4
    9ae8:	1a000005 	bne	9b04 <leave_critsec+0x98>
    9aec:	e51b3010 	ldr	r3, [fp, #-16]
    9af0:	e3a02002 	mov	r2, #2
    9af4:	e1c324b8 	strh	r2, [r3, #72]	; 0x48
    9af8:	e51b0010 	ldr	r0, [fp, #-16]
    9afc:	ebfff9c6 	bl	821c <queue>
    9b00:	ea000006 	b	9b20 <leave_critsec+0xb4>
    9b04:	e51b3010 	ldr	r3, [fp, #-16]
    9b08:	e1d334b8 	ldrh	r3, [r3, #72]	; 0x48
    9b0c:	e3530003 	cmp	r3, #3
    9b10:	1a000002 	bne	9b20 <leave_critsec+0xb4>
    9b14:	e51b3010 	ldr	r3, [fp, #-16]
    9b18:	e3a02002 	mov	r2, #2
    9b1c:	e1c324b8 	strh	r2, [r3, #72]	; 0x48
    9b20:	e51b3018 	ldr	r3, [fp, #-24]	; 0xffffffe8
    9b24:	e5932004 	ldr	r2, [r3, #4]
    9b28:	e51b3018 	ldr	r3, [fp, #-24]	; 0xffffffe8
    9b2c:	e5933008 	ldr	r3, [r3, #8]
    9b30:	e1520003 	cmp	r2, r3
    9b34:	1a000007 	bne	9b58 <leave_critsec+0xec>
    9b38:	e51b3018 	ldr	r3, [fp, #-24]	; 0xffffffe8
    9b3c:	e3a02000 	mov	r2, #0
    9b40:	e5832008 	str	r2, [r3, #8]
    9b44:	e51b3018 	ldr	r3, [fp, #-24]	; 0xffffffe8
    9b48:	e5932008 	ldr	r2, [r3, #8]
    9b4c:	e51b3018 	ldr	r3, [fp, #-24]	; 0xffffffe8
    9b50:	e5832004 	str	r2, [r3, #4]
    9b54:	ea000004 	b	9b6c <leave_critsec+0x100>
    9b58:	e51b3018 	ldr	r3, [fp, #-24]	; 0xffffffe8
    9b5c:	e5933004 	ldr	r3, [r3, #4]
    9b60:	e5932070 	ldr	r2, [r3, #112]	; 0x70
    9b64:	e51b3018 	ldr	r3, [fp, #-24]	; 0xffffffe8
    9b68:	e5832004 	str	r2, [r3, #4]
    9b6c:	e30f3f04 	movw	r3, #65284	; 0xff04
    9b70:	e3403000 	movt	r3, #0
    9b74:	e5933000 	ldr	r3, [r3]
    9b78:	e2033002 	and	r3, r3, #2
    9b7c:	e3530000 	cmp	r3, #0
    9b80:	0a000003 	beq	9b94 <leave_critsec+0x128>
    9b84:	e51b000c 	ldr	r0, [fp, #-12]
    9b88:	ebfff996 	bl	81e8 <set_enable>
    9b8c:	ebfffa3e 	bl	848c <dispatch>
    9b90:	f10c0080 	cpsid	i
    9b94:	e3a03001 	mov	r3, #1
    9b98:	e50b3008 	str	r3, [fp, #-8]
    9b9c:	e51b000c 	ldr	r0, [fp, #-12]
    9ba0:	ebfff990 	bl	81e8 <set_enable>
    9ba4:	e51b000c 	ldr	r0, [fp, #-12]
    9ba8:	ebfff98e 	bl	81e8 <set_enable>
    9bac:	e51b3008 	ldr	r3, [fp, #-8]
    9bb0:	e1a00003 	mov	r0, r3
    9bb4:	e24bd004 	sub	sp, fp, #4
    9bb8:	e8bd8800 	pop	{fp, pc}

00009bbc <suspend>:
    9bbc:	e52db004 	push	{fp}		; (str fp, [sp, #-4]!)
    9bc0:	e28db000 	add	fp, sp, #0
    9bc4:	e30f3f04 	movw	r3, #65284	; 0xff04
    9bc8:	e3403000 	movt	r3, #0
    9bcc:	e5933000 	ldr	r3, [r3]
    9bd0:	e2033001 	and	r3, r3, #1
    9bd4:	e3530000 	cmp	r3, #0
    9bd8:	1a000001 	bne	9be4 <suspend+0x28>
    9bdc:	e3e03000 	mvn	r3, #0
    9be0:	ea00003a 	b	9cd0 <suspend+0x114>
    9be4:	e24dd004 	sub	sp, sp, #4
    9be8:	e52d0004 	push	{r0}		; (str r0, [sp, #-4]!)
    9bec:	e10f0000 	mrs	r0, CPSR
    9bf0:	e58d0004 	str	r0, [sp, #4]
    9bf4:	e49d0004 	pop	{r0}		; (ldr r0, [sp], #4)
    9bf8:	e3003334 	movw	r3, #820	; 0x334
    9bfc:	e3403001 	movt	r3, #1
    9c00:	e5933000 	ldr	r3, [r3]
    9c04:	e2832001 	add	r2, r3, #1
    9c08:	e3003334 	movw	r3, #820	; 0x334
    9c0c:	e3403001 	movt	r3, #1
    9c10:	e5832000 	str	r2, [r3]
    9c14:	e52d0004 	push	{r0}		; (str r0, [sp, #-4]!)
    9c18:	e59d0004 	ldr	r0, [sp, #4]
    9c1c:	e129f000 	msr	CPSR_fc, r0
    9c20:	e49d0004 	pop	{r0}		; (ldr r0, [sp], #4)
    9c24:	e28dd004 	add	sp, sp, #4
    9c28:	e30f3ef4 	movw	r3, #65268	; 0xfef4
    9c2c:	e3403000 	movt	r3, #0
    9c30:	e5933000 	ldr	r3, [r3]
    9c34:	e3a02002 	mov	r2, #2
    9c38:	e1c324ba 	strh	r2, [r3, #74]	; 0x4a
    9c3c:	e30f3ef4 	movw	r3, #65268	; 0xfef4
    9c40:	e3403000 	movt	r3, #0
    9c44:	e5933000 	ldr	r3, [r3]
    9c48:	e3a02003 	mov	r2, #3
    9c4c:	e1c324b8 	strh	r2, [r3, #72]	; 0x48
    9c50:	e24dd004 	sub	sp, sp, #4
    9c54:	e52d0004 	push	{r0}		; (str r0, [sp, #-4]!)
    9c58:	e10f0000 	mrs	r0, CPSR
    9c5c:	e58d0004 	str	r0, [sp, #4]
    9c60:	e49d0004 	pop	{r0}		; (ldr r0, [sp], #4)
    9c64:	e3003334 	movw	r3, #820	; 0x334
    9c68:	e3403001 	movt	r3, #1
    9c6c:	e5933000 	ldr	r3, [r3]
    9c70:	e2432001 	sub	r2, r3, #1
    9c74:	e3003334 	movw	r3, #820	; 0x334
    9c78:	e3403001 	movt	r3, #1
    9c7c:	e5832000 	str	r2, [r3]
    9c80:	e52d0004 	push	{r0}		; (str r0, [sp, #-4]!)
    9c84:	e59d0004 	ldr	r0, [sp, #4]
    9c88:	e129f000 	msr	CPSR_fc, r0
    9c8c:	e49d0004 	pop	{r0}		; (ldr r0, [sp], #4)
    9c90:	e28dd004 	add	sp, sp, #4
    9c94:	ea000006 	b	9cb4 <suspend+0xf8>
    9c98:	e30f3f04 	movw	r3, #65284	; 0xff04
    9c9c:	e3403000 	movt	r3, #0
    9ca0:	e5933000 	ldr	r3, [r3]
    9ca4:	e2033002 	and	r3, r3, #2
    9ca8:	e3530000 	cmp	r3, #0
    9cac:	0a000000 	beq	9cb4 <suspend+0xf8>
    9cb0:	ef000060 	svc	0x00000060
    9cb4:	e30f3ef4 	movw	r3, #65268	; 0xfef4
    9cb8:	e3403000 	movt	r3, #0
    9cbc:	e5933000 	ldr	r3, [r3]
    9cc0:	e1d334b8 	ldrh	r3, [r3, #72]	; 0x48
    9cc4:	e3530003 	cmp	r3, #3
    9cc8:	0afffff2 	beq	9c98 <suspend+0xdc>
    9ccc:	e3a03000 	mov	r3, #0
    9cd0:	e1a00003 	mov	r0, r3
    9cd4:	e28bd000 	add	sp, fp, #0
    9cd8:	e49db004 	pop	{fp}		; (ldr fp, [sp], #4)
    9cdc:	e12fff1e 	bx	lr

00009ce0 <delay_task>:
    9ce0:	e52db004 	push	{fp}		; (str fp, [sp, #-4]!)
    9ce4:	e28db000 	add	fp, sp, #0
    9ce8:	e24dd01c 	sub	sp, sp, #28
    9cec:	e14b01fc 	strd	r0, [fp, #-28]	; 0xffffffe4
    9cf0:	e30f3f04 	movw	r3, #65284	; 0xff04
    9cf4:	e3403000 	movt	r3, #0
    9cf8:	e5933000 	ldr	r3, [r3]
    9cfc:	e2033001 	and	r3, r3, #1
    9d00:	e3530000 	cmp	r3, #0
    9d04:	1a000001 	bne	9d10 <delay_task+0x30>
    9d08:	e3e03000 	mvn	r3, #0
    9d0c:	ea0000b8 	b	9ff4 <delay_task+0x314>
    9d10:	ed5b0b07 	vldr	d16, [fp, #-28]	; 0xffffffe4
    9d14:	eef50bc0 	vcmpe.f64	d16, #0.0
    9d18:	eef1fa10 	vmrs	APSR_nzcv, fpscr
    9d1c:	5a000001 	bpl	9d28 <delay_task+0x48>
    9d20:	e3e03000 	mvn	r3, #0
    9d24:	ea0000b2 	b	9ff4 <delay_task+0x314>
    9d28:	e24dd004 	sub	sp, sp, #4
    9d2c:	e52d0004 	push	{r0}		; (str r0, [sp, #-4]!)
    9d30:	e10f0000 	mrs	r0, CPSR
    9d34:	e58d0004 	str	r0, [sp, #4]
    9d38:	e49d0004 	pop	{r0}		; (ldr r0, [sp], #4)
    9d3c:	e3003334 	movw	r3, #820	; 0x334
    9d40:	e3403001 	movt	r3, #1
    9d44:	e5933000 	ldr	r3, [r3]
    9d48:	e2832001 	add	r2, r3, #1
    9d4c:	e3003334 	movw	r3, #820	; 0x334
    9d50:	e3403001 	movt	r3, #1
    9d54:	e5832000 	str	r2, [r3]
    9d58:	e52d0004 	push	{r0}		; (str r0, [sp, #-4]!)
    9d5c:	e59d0004 	ldr	r0, [sp, #4]
    9d60:	e129f000 	msr	CPSR_fc, r0
    9d64:	e49d0004 	pop	{r0}		; (ldr r0, [sp], #4)
    9d68:	e28dd004 	add	sp, sp, #4
    9d6c:	e3a03000 	mov	r3, #0
    9d70:	e50b3008 	str	r3, [fp, #-8]
    9d74:	e51b3008 	ldr	r3, [fp, #-8]
    9d78:	e3530000 	cmp	r3, #0
    9d7c:	0a000001 	beq	9d88 <delay_task+0xa8>
    9d80:	e51b3008 	ldr	r3, [fp, #-8]
    9d84:	ea000000 	b	9d8c <delay_task+0xac>
    9d88:	e3a03001 	mov	r3, #1
    9d8c:	e50b3008 	str	r3, [fp, #-8]
    9d90:	ed5b0b07 	vldr	d16, [fp, #-28]	; 0xffffffe4
    9d94:	eef50b40 	vcmp.f64	d16, #0.0
    9d98:	eef1fa10 	vmrs	APSR_nzcv, fpscr
    9d9c:	0a00006a 	beq	9f4c <delay_task+0x26c>
    9da0:	e30f3f0c 	movw	r3, #65292	; 0xff0c
    9da4:	e3403000 	movt	r3, #0
    9da8:	e5933000 	ldr	r3, [r3]
    9dac:	e2832001 	add	r2, r3, #1
    9db0:	e30f3f0c 	movw	r3, #65292	; 0xff0c
    9db4:	e3403000 	movt	r3, #0
    9db8:	e5832000 	str	r2, [r3]
    9dbc:	e30f3f00 	movw	r3, #65280	; 0xff00
    9dc0:	e3403000 	movt	r3, #0
    9dc4:	e5933000 	ldr	r3, [r3]
    9dc8:	e3530000 	cmp	r3, #0
    9dcc:	0a000041 	beq	9ed8 <delay_task+0x1f8>
    9dd0:	e30f3f00 	movw	r3, #65280	; 0xff00
    9dd4:	e3403000 	movt	r3, #0
    9dd8:	e5933000 	ldr	r3, [r3]
    9ddc:	e50b3010 	str	r3, [fp, #-16]
    9de0:	e51b3010 	ldr	r3, [fp, #-16]
    9de4:	e50b300c 	str	r3, [fp, #-12]
    9de8:	ea000009 	b	9e14 <delay_task+0x134>
    9dec:	e51b3010 	ldr	r3, [fp, #-16]
    9df0:	e50b300c 	str	r3, [fp, #-12]
    9df4:	e51b3010 	ldr	r3, [fp, #-16]
    9df8:	e593306c 	ldr	r3, [r3, #108]	; 0x6c
    9dfc:	e50b3010 	str	r3, [fp, #-16]
    9e00:	e51b300c 	ldr	r3, [fp, #-12]
    9e04:	e593304c 	ldr	r3, [r3, #76]	; 0x4c
    9e08:	e51b2008 	ldr	r2, [fp, #-8]
    9e0c:	e0423003 	sub	r3, r2, r3
    9e10:	e50b3008 	str	r3, [fp, #-8]
    9e14:	e51b3010 	ldr	r3, [fp, #-16]
    9e18:	e3530000 	cmp	r3, #0
    9e1c:	0a000004 	beq	9e34 <delay_task+0x154>
    9e20:	e51b3010 	ldr	r3, [fp, #-16]
    9e24:	e593304c 	ldr	r3, [r3, #76]	; 0x4c
    9e28:	e51b2008 	ldr	r2, [fp, #-8]
    9e2c:	e1520003 	cmp	r2, r3
    9e30:	2affffed 	bcs	9dec <delay_task+0x10c>
    9e34:	e30f3f00 	movw	r3, #65280	; 0xff00
    9e38:	e3403000 	movt	r3, #0
    9e3c:	e5933000 	ldr	r3, [r3]
    9e40:	e51b2010 	ldr	r2, [fp, #-16]
    9e44:	e1520003 	cmp	r2, r3
    9e48:	1a000006 	bne	9e68 <delay_task+0x188>
    9e4c:	e30f3ef4 	movw	r3, #65268	; 0xfef4
    9e50:	e3403000 	movt	r3, #0
    9e54:	e5932000 	ldr	r2, [r3]
    9e58:	e30f3f00 	movw	r3, #65280	; 0xff00
    9e5c:	e3403000 	movt	r3, #0
    9e60:	e5832000 	str	r2, [r3]
    9e64:	ea000004 	b	9e7c <delay_task+0x19c>
    9e68:	e30f3ef4 	movw	r3, #65268	; 0xfef4
    9e6c:	e3403000 	movt	r3, #0
    9e70:	e5932000 	ldr	r2, [r3]
    9e74:	e51b300c 	ldr	r3, [fp, #-12]
    9e78:	e583206c 	str	r2, [r3, #108]	; 0x6c
    9e7c:	e30f3ef4 	movw	r3, #65268	; 0xfef4
    9e80:	e3403000 	movt	r3, #0
    9e84:	e5933000 	ldr	r3, [r3]
    9e88:	e51b2008 	ldr	r2, [fp, #-8]
    9e8c:	e583204c 	str	r2, [r3, #76]	; 0x4c
    9e90:	e30f3ef4 	movw	r3, #65268	; 0xfef4
    9e94:	e3403000 	movt	r3, #0
    9e98:	e5933000 	ldr	r3, [r3]
    9e9c:	e51b2010 	ldr	r2, [fp, #-16]
    9ea0:	e583206c 	str	r2, [r3, #108]	; 0x6c
    9ea4:	e51b3010 	ldr	r3, [fp, #-16]
    9ea8:	e3530000 	cmp	r3, #0
    9eac:	0a000019 	beq	9f18 <delay_task+0x238>
    9eb0:	e51b3008 	ldr	r3, [fp, #-8]
    9eb4:	e3530000 	cmp	r3, #0
    9eb8:	0a000016 	beq	9f18 <delay_task+0x238>
    9ebc:	e51b3010 	ldr	r3, [fp, #-16]
    9ec0:	e593204c 	ldr	r2, [r3, #76]	; 0x4c
    9ec4:	e51b3008 	ldr	r3, [fp, #-8]
    9ec8:	e0422003 	sub	r2, r2, r3
    9ecc:	e51b3010 	ldr	r3, [fp, #-16]
    9ed0:	e583204c 	str	r2, [r3, #76]	; 0x4c
    9ed4:	ea00000f 	b	9f18 <delay_task+0x238>
    9ed8:	e30f3ef4 	movw	r3, #65268	; 0xfef4
    9edc:	e3403000 	movt	r3, #0
    9ee0:	e5932000 	ldr	r2, [r3]
    9ee4:	e30f3f00 	movw	r3, #65280	; 0xff00
    9ee8:	e3403000 	movt	r3, #0
    9eec:	e5832000 	str	r2, [r3]
    9ef0:	e30f3f00 	movw	r3, #65280	; 0xff00
    9ef4:	e3403000 	movt	r3, #0
    9ef8:	e5933000 	ldr	r3, [r3]
    9efc:	e3a02000 	mov	r2, #0
    9f00:	e583206c 	str	r2, [r3, #108]	; 0x6c
    9f04:	e30f3f00 	movw	r3, #65280	; 0xff00
    9f08:	e3403000 	movt	r3, #0
    9f0c:	e5933000 	ldr	r3, [r3]
    9f10:	e51b2008 	ldr	r2, [fp, #-8]
    9f14:	e583204c 	str	r2, [r3, #76]	; 0x4c
    9f18:	e30f3ef4 	movw	r3, #65268	; 0xfef4
    9f1c:	e3403000 	movt	r3, #0
    9f20:	e5933000 	ldr	r3, [r3]
    9f24:	e3a02003 	mov	r2, #3
    9f28:	e1c324ba 	strh	r2, [r3, #74]	; 0x4a
    9f2c:	e30f3f0c 	movw	r3, #65292	; 0xff0c
    9f30:	e3403000 	movt	r3, #0
    9f34:	e5933000 	ldr	r3, [r3]
    9f38:	e2432001 	sub	r2, r3, #1
    9f3c:	e30f3f0c 	movw	r3, #65292	; 0xff0c
    9f40:	e3403000 	movt	r3, #0
    9f44:	e5832000 	str	r2, [r3]
    9f48:	ea000004 	b	9f60 <delay_task+0x280>
    9f4c:	e30f3ef4 	movw	r3, #65268	; 0xfef4
    9f50:	e3403000 	movt	r3, #0
    9f54:	e5933000 	ldr	r3, [r3]
    9f58:	e3a02002 	mov	r2, #2
    9f5c:	e1c324ba 	strh	r2, [r3, #74]	; 0x4a
    9f60:	e30f3ef4 	movw	r3, #65268	; 0xfef4
    9f64:	e3403000 	movt	r3, #0
    9f68:	e5933000 	ldr	r3, [r3]
    9f6c:	e3a02003 	mov	r2, #3
    9f70:	e1c324b8 	strh	r2, [r3, #72]	; 0x48
    9f74:	e24dd004 	sub	sp, sp, #4
    9f78:	e52d0004 	push	{r0}		; (str r0, [sp, #-4]!)
    9f7c:	e10f0000 	mrs	r0, CPSR
    9f80:	e58d0004 	str	r0, [sp, #4]
    9f84:	e49d0004 	pop	{r0}		; (ldr r0, [sp], #4)
    9f88:	e3003334 	movw	r3, #820	; 0x334
    9f8c:	e3403001 	movt	r3, #1
    9f90:	e5933000 	ldr	r3, [r3]
    9f94:	e2432001 	sub	r2, r3, #1
    9f98:	e3003334 	movw	r3, #820	; 0x334
    9f9c:	e3403001 	movt	r3, #1
    9fa0:	e5832000 	str	r2, [r3]
    9fa4:	e52d0004 	push	{r0}		; (str r0, [sp, #-4]!)
    9fa8:	e59d0004 	ldr	r0, [sp, #4]
    9fac:	e129f000 	msr	CPSR_fc, r0
    9fb0:	e49d0004 	pop	{r0}		; (ldr r0, [sp], #4)
    9fb4:	e28dd004 	add	sp, sp, #4
    9fb8:	ea000006 	b	9fd8 <delay_task+0x2f8>
    9fbc:	e30f3f04 	movw	r3, #65284	; 0xff04
    9fc0:	e3403000 	movt	r3, #0
    9fc4:	e5933000 	ldr	r3, [r3]
    9fc8:	e2033002 	and	r3, r3, #2
    9fcc:	e3530000 	cmp	r3, #0
    9fd0:	0a000000 	beq	9fd8 <delay_task+0x2f8>
    9fd4:	ef000060 	svc	0x00000060
    9fd8:	e30f3ef4 	movw	r3, #65268	; 0xfef4
    9fdc:	e3403000 	movt	r3, #0
    9fe0:	e5933000 	ldr	r3, [r3]
    9fe4:	e1d334b8 	ldrh	r3, [r3, #72]	; 0x48
    9fe8:	e3530003 	cmp	r3, #3
    9fec:	0afffff2 	beq	9fbc <delay_task+0x2dc>
    9ff0:	e3a03000 	mov	r3, #0
    9ff4:	e1a00003 	mov	r0, r3
    9ff8:	e28bd000 	add	sp, fp, #0
    9ffc:	e49db004 	pop	{fp}		; (ldr fp, [sp], #4)
    a000:	e12fff1e 	bx	lr

0000a004 <request>:
    a004:	e92d4800 	push	{fp, lr}
    a008:	e28db004 	add	fp, sp, #4
    a00c:	e24dd018 	sub	sp, sp, #24
    a010:	e50b0018 	str	r0, [fp, #-24]	; 0xffffffe8
    a014:	e30f3f38 	movw	r3, #65336	; 0xff38
    a018:	e3403000 	movt	r3, #0
    a01c:	e51b2018 	ldr	r2, [fp, #-24]	; 0xffffffe8
    a020:	e7933102 	ldr	r3, [r3, r2, lsl #2]
    a024:	e1d334b8 	ldrh	r3, [r3, #72]	; 0x48
    a028:	e3530004 	cmp	r3, #4
    a02c:	1a00000d 	bne	a068 <request+0x64>
    a030:	e30f3f38 	movw	r3, #65336	; 0xff38
    a034:	e3403000 	movt	r3, #0
    a038:	e51b2018 	ldr	r2, [fp, #-24]	; 0xffffffe8
    a03c:	e7933102 	ldr	r3, [r3, r2, lsl #2]
    a040:	e1d334ba 	ldrh	r3, [r3, #74]	; 0x4a
    a044:	e3530002 	cmp	r3, #2
    a048:	0a000008 	beq	a070 <request+0x6c>
    a04c:	e30f3f38 	movw	r3, #65336	; 0xff38
    a050:	e3403000 	movt	r3, #0
    a054:	e51b2018 	ldr	r2, [fp, #-24]	; 0xffffffe8
    a058:	e7933102 	ldr	r3, [r3, r2, lsl #2]
    a05c:	e1d334ba 	ldrh	r3, [r3, #74]	; 0x4a
    a060:	e3530003 	cmp	r3, #3
    a064:	0a000001 	beq	a070 <request+0x6c>
    a068:	e3a03001 	mov	r3, #1
    a06c:	ea000099 	b	a2d8 <request+0x2d4>
    a070:	e24dd004 	sub	sp, sp, #4
    a074:	e52d0004 	push	{r0}		; (str r0, [sp, #-4]!)
    a078:	e10f0000 	mrs	r0, CPSR
    a07c:	e58d0004 	str	r0, [sp, #4]
    a080:	e49d0004 	pop	{r0}		; (ldr r0, [sp], #4)
    a084:	e3003334 	movw	r3, #820	; 0x334
    a088:	e3403001 	movt	r3, #1
    a08c:	e5933000 	ldr	r3, [r3]
    a090:	e2832001 	add	r2, r3, #1
    a094:	e3003334 	movw	r3, #820	; 0x334
    a098:	e3403001 	movt	r3, #1
    a09c:	e5832000 	str	r2, [r3]
    a0a0:	e52d0004 	push	{r0}		; (str r0, [sp, #-4]!)
    a0a4:	e59d0004 	ldr	r0, [sp, #4]
    a0a8:	e129f000 	msr	CPSR_fc, r0
    a0ac:	e49d0004 	pop	{r0}		; (ldr r0, [sp], #4)
    a0b0:	e28dd004 	add	sp, sp, #4
    a0b4:	e30f3f38 	movw	r3, #65336	; 0xff38
    a0b8:	e3403000 	movt	r3, #0
    a0bc:	e51b2018 	ldr	r2, [fp, #-24]	; 0xffffffe8
    a0c0:	e7933102 	ldr	r3, [r3, r2, lsl #2]
    a0c4:	e1d334ba 	ldrh	r3, [r3, #74]	; 0x4a
    a0c8:	e3530003 	cmp	r3, #3
    a0cc:	1a00005d 	bne	a248 <request+0x244>
    a0d0:	e30f3f0c 	movw	r3, #65292	; 0xff0c
    a0d4:	e3403000 	movt	r3, #0
    a0d8:	e5933000 	ldr	r3, [r3]
    a0dc:	e2832001 	add	r2, r3, #1
    a0e0:	e30f3f0c 	movw	r3, #65292	; 0xff0c
    a0e4:	e3403000 	movt	r3, #0
    a0e8:	e5832000 	str	r2, [r3]
    a0ec:	e3a03000 	mov	r3, #0
    a0f0:	e50b3008 	str	r3, [fp, #-8]
    a0f4:	e30f3f00 	movw	r3, #65280	; 0xff00
    a0f8:	e3403000 	movt	r3, #0
    a0fc:	e5933000 	ldr	r3, [r3]
    a100:	e50b300c 	str	r3, [fp, #-12]
    a104:	ea000004 	b	a11c <request+0x118>
    a108:	e51b300c 	ldr	r3, [fp, #-12]
    a10c:	e50b3008 	str	r3, [fp, #-8]
    a110:	e51b300c 	ldr	r3, [fp, #-12]
    a114:	e593306c 	ldr	r3, [r3, #108]	; 0x6c
    a118:	e50b300c 	str	r3, [fp, #-12]
    a11c:	e51b300c 	ldr	r3, [fp, #-12]
    a120:	e3530000 	cmp	r3, #0
    a124:	0a000005 	beq	a140 <request+0x13c>
    a128:	e51b300c 	ldr	r3, [fp, #-12]
    a12c:	e1d334b4 	ldrh	r3, [r3, #68]	; 0x44
    a130:	e1a02003 	mov	r2, r3
    a134:	e51b3018 	ldr	r3, [fp, #-24]	; 0xffffffe8
    a138:	e1530002 	cmp	r3, r2
    a13c:	1afffff1 	bne	a108 <request+0x104>
    a140:	e51b300c 	ldr	r3, [fp, #-12]
    a144:	e3530000 	cmp	r3, #0
    a148:	1a000019 	bne	a1b4 <request+0x1b0>
    a14c:	e30f3f0c 	movw	r3, #65292	; 0xff0c
    a150:	e3403000 	movt	r3, #0
    a154:	e5933000 	ldr	r3, [r3]
    a158:	e2432001 	sub	r2, r3, #1
    a15c:	e30f3f0c 	movw	r3, #65292	; 0xff0c
    a160:	e3403000 	movt	r3, #0
    a164:	e5832000 	str	r2, [r3]
    a168:	e24dd004 	sub	sp, sp, #4
    a16c:	e52d0004 	push	{r0}		; (str r0, [sp, #-4]!)
    a170:	e10f0000 	mrs	r0, CPSR
    a174:	e58d0004 	str	r0, [sp, #4]
    a178:	e49d0004 	pop	{r0}		; (ldr r0, [sp], #4)
    a17c:	e3003334 	movw	r3, #820	; 0x334
    a180:	e3403001 	movt	r3, #1
    a184:	e5933000 	ldr	r3, [r3]
    a188:	e2432001 	sub	r2, r3, #1
    a18c:	e3003334 	movw	r3, #820	; 0x334
    a190:	e3403001 	movt	r3, #1
    a194:	e5832000 	str	r2, [r3]
    a198:	e52d0004 	push	{r0}		; (str r0, [sp, #-4]!)
    a19c:	e59d0004 	ldr	r0, [sp, #4]
    a1a0:	e129f000 	msr	CPSR_fc, r0
    a1a4:	e49d0004 	pop	{r0}		; (ldr r0, [sp], #4)
    a1a8:	e28dd004 	add	sp, sp, #4
    a1ac:	e3e03000 	mvn	r3, #0
    a1b0:	ea000048 	b	a2d8 <request+0x2d4>
    a1b4:	e51b300c 	ldr	r3, [fp, #-12]
    a1b8:	e593306c 	ldr	r3, [r3, #108]	; 0x6c
    a1bc:	e3530000 	cmp	r3, #0
    a1c0:	0a00000c 	beq	a1f8 <request+0x1f4>
    a1c4:	e51b300c 	ldr	r3, [fp, #-12]
    a1c8:	e593304c 	ldr	r3, [r3, #76]	; 0x4c
    a1cc:	e3530000 	cmp	r3, #0
    a1d0:	0a000008 	beq	a1f8 <request+0x1f4>
    a1d4:	e51b300c 	ldr	r3, [fp, #-12]
    a1d8:	e593306c 	ldr	r3, [r3, #108]	; 0x6c
    a1dc:	e593104c 	ldr	r1, [r3, #76]	; 0x4c
    a1e0:	e51b300c 	ldr	r3, [fp, #-12]
    a1e4:	e593204c 	ldr	r2, [r3, #76]	; 0x4c
    a1e8:	e51b300c 	ldr	r3, [fp, #-12]
    a1ec:	e593306c 	ldr	r3, [r3, #108]	; 0x6c
    a1f0:	e0812002 	add	r2, r1, r2
    a1f4:	e583204c 	str	r2, [r3, #76]	; 0x4c
    a1f8:	e51b3008 	ldr	r3, [fp, #-8]
    a1fc:	e3530000 	cmp	r3, #0
    a200:	0a000004 	beq	a218 <request+0x214>
    a204:	e51b300c 	ldr	r3, [fp, #-12]
    a208:	e593206c 	ldr	r2, [r3, #108]	; 0x6c
    a20c:	e51b3008 	ldr	r3, [fp, #-8]
    a210:	e583206c 	str	r2, [r3, #108]	; 0x6c
    a214:	ea000004 	b	a22c <request+0x228>
    a218:	e51b300c 	ldr	r3, [fp, #-12]
    a21c:	e593206c 	ldr	r2, [r3, #108]	; 0x6c
    a220:	e30f3f00 	movw	r3, #65280	; 0xff00
    a224:	e3403000 	movt	r3, #0
    a228:	e5832000 	str	r2, [r3]
    a22c:	e30f3f0c 	movw	r3, #65292	; 0xff0c
    a230:	e3403000 	movt	r3, #0
    a234:	e5933000 	ldr	r3, [r3]
    a238:	e2432001 	sub	r2, r3, #1
    a23c:	e30f3f0c 	movw	r3, #65292	; 0xff0c
    a240:	e3403000 	movt	r3, #0
    a244:	e5832000 	str	r2, [r3]
    a248:	e30f3f38 	movw	r3, #65336	; 0xff38
    a24c:	e3403000 	movt	r3, #0
    a250:	e51b2018 	ldr	r2, [fp, #-24]	; 0xffffffe8
    a254:	e7933102 	ldr	r3, [r3, r2, lsl #2]
    a258:	e3a02002 	mov	r2, #2
    a25c:	e1c324b8 	strh	r2, [r3, #72]	; 0x48
    a260:	ebfff7d6 	bl	81c0 <set_disable>
    a264:	e50b0010 	str	r0, [fp, #-16]
    a268:	f10c0080 	cpsid	i
    a26c:	e30f3f38 	movw	r3, #65336	; 0xff38
    a270:	e3403000 	movt	r3, #0
    a274:	e51b2018 	ldr	r2, [fp, #-24]	; 0xffffffe8
    a278:	e7933102 	ldr	r3, [r3, r2, lsl #2]
    a27c:	e1a00003 	mov	r0, r3
    a280:	ebfff7e5 	bl	821c <queue>
    a284:	e51b0010 	ldr	r0, [fp, #-16]
    a288:	ebfff7d6 	bl	81e8 <set_enable>
    a28c:	e24dd004 	sub	sp, sp, #4
    a290:	e52d0004 	push	{r0}		; (str r0, [sp, #-4]!)
    a294:	e10f0000 	mrs	r0, CPSR
    a298:	e58d0004 	str	r0, [sp, #4]
    a29c:	e49d0004 	pop	{r0}		; (ldr r0, [sp], #4)
    a2a0:	e3003334 	movw	r3, #820	; 0x334
    a2a4:	e3403001 	movt	r3, #1
    a2a8:	e5933000 	ldr	r3, [r3]
    a2ac:	e2432001 	sub	r2, r3, #1
    a2b0:	e3003334 	movw	r3, #820	; 0x334
    a2b4:	e3403001 	movt	r3, #1
    a2b8:	e5832000 	str	r2, [r3]
    a2bc:	e52d0004 	push	{r0}		; (str r0, [sp, #-4]!)
    a2c0:	e59d0004 	ldr	r0, [sp, #4]
    a2c4:	e129f000 	msr	CPSR_fc, r0
    a2c8:	e49d0004 	pop	{r0}		; (ldr r0, [sp], #4)
    a2cc:	e28dd004 	add	sp, sp, #4
    a2d0:	ebfff86d 	bl	848c <dispatch>
    a2d4:	e3a03000 	mov	r3, #0
    a2d8:	e1a00003 	mov	r0, r3
    a2dc:	e24bd004 	sub	sp, fp, #4
    a2e0:	e8bd8800 	pop	{fp, pc}

0000a2e4 <levelchange>:
    a2e4:	e92d4800 	push	{fp, lr}
    a2e8:	e28db004 	add	fp, sp, #4
    a2ec:	e24dd010 	sub	sp, sp, #16
    a2f0:	e50b0010 	str	r0, [fp, #-16]
    a2f4:	e51b3010 	ldr	r3, [fp, #-16]
    a2f8:	e3530ffa 	cmp	r3, #1000	; 0x3e8
    a2fc:	ca000002 	bgt	a30c <levelchange+0x28>
    a300:	e51b3010 	ldr	r3, [fp, #-16]
    a304:	e3530000 	cmp	r3, #0
    a308:	ca000001 	bgt	a314 <levelchange+0x30>
    a30c:	e3e03001 	mvn	r3, #1
    a310:	ea00001b 	b	a384 <levelchange+0xa0>
    a314:	ebfff7a9 	bl	81c0 <set_disable>
    a318:	e50b000c 	str	r0, [fp, #-12]
    a31c:	e30f3ef4 	movw	r3, #65268	; 0xfef4
    a320:	e3403000 	movt	r3, #0
    a324:	e5933000 	ldr	r3, [r3]
    a328:	e3530000 	cmp	r3, #0
    a32c:	0a00000b 	beq	a360 <levelchange+0x7c>
    a330:	e30f3ef4 	movw	r3, #65268	; 0xfef4
    a334:	e3403000 	movt	r3, #0
    a338:	e5933000 	ldr	r3, [r3]
    a33c:	e1d335b4 	ldrh	r3, [r3, #84]	; 0x54
    a340:	e50b3008 	str	r3, [fp, #-8]
    a344:	e30f3ef4 	movw	r3, #65268	; 0xfef4
    a348:	e3403000 	movt	r3, #0
    a34c:	e5933000 	ldr	r3, [r3]
    a350:	e51b2010 	ldr	r2, [fp, #-16]
    a354:	e6ff2072 	uxth	r2, r2
    a358:	e1c325b4 	strh	r2, [r3, #84]	; 0x54
    a35c:	ea000001 	b	a368 <levelchange+0x84>
    a360:	e3e03000 	mvn	r3, #0
    a364:	e50b3008 	str	r3, [fp, #-8]
    a368:	e51b000c 	ldr	r0, [fp, #-12]
    a36c:	ebfff79d 	bl	81e8 <set_enable>
    a370:	e51b3008 	ldr	r3, [fp, #-8]
    a374:	e3730001 	cmn	r3, #1
    a378:	0a000000 	beq	a380 <levelchange+0x9c>
    a37c:	ebfff842 	bl	848c <dispatch>
    a380:	e51b3008 	ldr	r3, [fp, #-8]
    a384:	e1a00003 	mov	r0, r3
    a388:	e24bd004 	sub	sp, fp, #4
    a38c:	e8bd8800 	pop	{fp, pc}

0000a390 <levelget>:
    a390:	e92d4800 	push	{fp, lr}
    a394:	e28db004 	add	fp, sp, #4
    a398:	e24dd008 	sub	sp, sp, #8
    a39c:	ebfff787 	bl	81c0 <set_disable>
    a3a0:	e50b000c 	str	r0, [fp, #-12]
    a3a4:	e30f3ef4 	movw	r3, #65268	; 0xfef4
    a3a8:	e3403000 	movt	r3, #0
    a3ac:	e5933000 	ldr	r3, [r3]
    a3b0:	e3530000 	cmp	r3, #0
    a3b4:	0a000005 	beq	a3d0 <levelget+0x40>
    a3b8:	e30f3ef4 	movw	r3, #65268	; 0xfef4
    a3bc:	e3403000 	movt	r3, #0
    a3c0:	e5933000 	ldr	r3, [r3]
    a3c4:	e1d335b4 	ldrh	r3, [r3, #84]	; 0x54
    a3c8:	e50b3008 	str	r3, [fp, #-8]
    a3cc:	ea000001 	b	a3d8 <levelget+0x48>
    a3d0:	e3e03000 	mvn	r3, #0
    a3d4:	e50b3008 	str	r3, [fp, #-8]
    a3d8:	e51b000c 	ldr	r0, [fp, #-12]
    a3dc:	ebfff781 	bl	81e8 <set_enable>
    a3e0:	e51b3008 	ldr	r3, [fp, #-8]
    a3e4:	e1a00003 	mov	r0, r3
    a3e8:	e24bd004 	sub	sp, fp, #4
    a3ec:	e8bd8800 	pop	{fp, pc}

0000a3f0 <timechange>:
    a3f0:	e92d4800 	push	{fp, lr}
    a3f4:	e28db004 	add	fp, sp, #4
    a3f8:	e24dd010 	sub	sp, sp, #16
    a3fc:	e50b0010 	str	r0, [fp, #-16]
    a400:	ebfff76e 	bl	81c0 <set_disable>
    a404:	e1a03000 	mov	r3, r0
    a408:	e50b3008 	str	r3, [fp, #-8]
    a40c:	e3a03000 	mov	r3, #0
    a410:	e50b3010 	str	r3, [fp, #-16]
    a414:	e30f3ef4 	movw	r3, #65268	; 0xfef4
    a418:	e3403000 	movt	r3, #0
    a41c:	e5933000 	ldr	r3, [r3]
    a420:	e5933050 	ldr	r3, [r3, #80]	; 0x50
    a424:	e50b300c 	str	r3, [fp, #-12]
    a428:	e30f3ef4 	movw	r3, #65268	; 0xfef4
    a42c:	e3403000 	movt	r3, #0
    a430:	e5933000 	ldr	r3, [r3]
    a434:	e51b2010 	ldr	r2, [fp, #-16]
    a438:	e5832050 	str	r2, [r3, #80]	; 0x50
    a43c:	e51b3008 	ldr	r3, [fp, #-8]
    a440:	e1a00003 	mov	r0, r3
    a444:	ebfff767 	bl	81e8 <set_enable>
    a448:	e51b300c 	ldr	r3, [fp, #-12]
    a44c:	e1a00003 	mov	r0, r3
    a450:	e24bd004 	sub	sp, fp, #4
    a454:	e8bd8800 	pop	{fp, pc}

0000a458 <timeget>:
    a458:	e92d4800 	push	{fp, lr}
    a45c:	e28db004 	add	fp, sp, #4
    a460:	e24dd008 	sub	sp, sp, #8
    a464:	ebfff755 	bl	81c0 <set_disable>
    a468:	e50b0008 	str	r0, [fp, #-8]
    a46c:	e3a03000 	mov	r3, #0
    a470:	e50b300c 	str	r3, [fp, #-12]
    a474:	e51b0008 	ldr	r0, [fp, #-8]
    a478:	ebfff75a 	bl	81e8 <set_enable>
    a47c:	e51b300c 	ldr	r3, [fp, #-12]
    a480:	e1a00003 	mov	r0, r3
    a484:	e24bd004 	sub	sp, fp, #4
    a488:	e8bd8800 	pop	{fp, pc}

0000a48c <gettaskstate>:
    a48c:	e92d4800 	push	{fp, lr}
    a490:	e28db004 	add	fp, sp, #4
    a494:	e24dd010 	sub	sp, sp, #16
    a498:	e50b0010 	str	r0, [fp, #-16]
    a49c:	e51b3010 	ldr	r3, [fp, #-16]
    a4a0:	e3530000 	cmp	r3, #0
    a4a4:	ba000010 	blt	a4ec <gettaskstate+0x60>
    a4a8:	e51b2010 	ldr	r2, [fp, #-16]
    a4ac:	e30f3f08 	movw	r3, #65288	; 0xff08
    a4b0:	e3403000 	movt	r3, #0
    a4b4:	e5933000 	ldr	r3, [r3]
    a4b8:	e1520003 	cmp	r2, r3
    a4bc:	8a00000a 	bhi	a4ec <gettaskstate+0x60>
    a4c0:	e30f3eb8 	movw	r3, #65208	; 0xfeb8
    a4c4:	e3403000 	movt	r3, #0
    a4c8:	e5933000 	ldr	r3, [r3]
    a4cc:	e3530001 	cmp	r3, #1
    a4d0:	0a000005 	beq	a4ec <gettaskstate+0x60>
    a4d4:	e30f3f38 	movw	r3, #65336	; 0xff38
    a4d8:	e3403000 	movt	r3, #0
    a4dc:	e51b2010 	ldr	r2, [fp, #-16]
    a4e0:	e7933102 	ldr	r3, [r3, r2, lsl #2]
    a4e4:	e3530000 	cmp	r3, #0
    a4e8:	1a000001 	bne	a4f4 <gettaskstate+0x68>
    a4ec:	e3a03000 	mov	r3, #0
    a4f0:	ea000012 	b	a540 <gettaskstate+0xb4>
    a4f4:	ebfff731 	bl	81c0 <set_disable>
    a4f8:	e50b0008 	str	r0, [fp, #-8]
    a4fc:	e30f3f38 	movw	r3, #65336	; 0xff38
    a500:	e3403000 	movt	r3, #0
    a504:	e51b2010 	ldr	r2, [fp, #-16]
    a508:	e7933102 	ldr	r3, [r3, r2, lsl #2]
    a50c:	e1d334b8 	ldrh	r3, [r3, #72]	; 0x48
    a510:	e1a01003 	mov	r1, r3
    a514:	e30f3f38 	movw	r3, #65336	; 0xff38
    a518:	e3403000 	movt	r3, #0
    a51c:	e51b2010 	ldr	r2, [fp, #-16]
    a520:	e7933102 	ldr	r3, [r3, r2, lsl #2]
    a524:	e1d334ba 	ldrh	r3, [r3, #74]	; 0x4a
    a528:	e1a03203 	lsl	r3, r3, #4
    a52c:	e1813003 	orr	r3, r1, r3
    a530:	e50b300c 	str	r3, [fp, #-12]
    a534:	e51b0008 	ldr	r0, [fp, #-8]
    a538:	ebfff72a 	bl	81e8 <set_enable>
    a53c:	e51b300c 	ldr	r3, [fp, #-12]
    a540:	e1a00003 	mov	r0, r3
    a544:	e24bd004 	sub	sp, fp, #4
    a548:	e8bd8800 	pop	{fp, pc}

0000a54c <timeslice_disable>:
    a54c:	e92d4800 	push	{fp, lr}
    a550:	e28db004 	add	fp, sp, #4
    a554:	e24dd008 	sub	sp, sp, #8
    a558:	e30f3f04 	movw	r3, #65284	; 0xff04
    a55c:	e3403000 	movt	r3, #0
    a560:	e5933000 	ldr	r3, [r3]
    a564:	e2033001 	and	r3, r3, #1
    a568:	e3530000 	cmp	r3, #0
    a56c:	0a00000c 	beq	a5a4 <timeslice_disable+0x58>
    a570:	ebfff712 	bl	81c0 <set_disable>
    a574:	e50b0008 	str	r0, [fp, #-8]
    a578:	e30f3f28 	movw	r3, #65320	; 0xff28
    a57c:	e3403000 	movt	r3, #0
    a580:	e5933000 	ldr	r3, [r3]
    a584:	e2832001 	add	r2, r3, #1
    a588:	e30f3f28 	movw	r3, #65320	; 0xff28
    a58c:	e3403000 	movt	r3, #0
    a590:	e5832000 	str	r2, [r3]
    a594:	e51b0008 	ldr	r0, [fp, #-8]
    a598:	ebfff712 	bl	81e8 <set_enable>
    a59c:	e3a03000 	mov	r3, #0
    a5a0:	ea000000 	b	a5a8 <timeslice_disable+0x5c>
    a5a4:	e3e03000 	mvn	r3, #0
    a5a8:	e1a00003 	mov	r0, r3
    a5ac:	e24bd004 	sub	sp, fp, #4
    a5b0:	e8bd8800 	pop	{fp, pc}

0000a5b4 <timeslice_enable>:
    a5b4:	e92d4800 	push	{fp, lr}
    a5b8:	e28db004 	add	fp, sp, #4
    a5bc:	e24dd008 	sub	sp, sp, #8
    a5c0:	e30f3f04 	movw	r3, #65284	; 0xff04
    a5c4:	e3403000 	movt	r3, #0
    a5c8:	e5933000 	ldr	r3, [r3]
    a5cc:	e2033001 	and	r3, r3, #1
    a5d0:	e3530000 	cmp	r3, #0
    a5d4:	0a000011 	beq	a620 <timeslice_enable+0x6c>
    a5d8:	e30f3f28 	movw	r3, #65320	; 0xff28
    a5dc:	e3403000 	movt	r3, #0
    a5e0:	e5933000 	ldr	r3, [r3]
    a5e4:	e3530000 	cmp	r3, #0
    a5e8:	0a00000c 	beq	a620 <timeslice_enable+0x6c>
    a5ec:	ebfff6f3 	bl	81c0 <set_disable>
    a5f0:	e50b0008 	str	r0, [fp, #-8]
    a5f4:	e30f3f28 	movw	r3, #65320	; 0xff28
    a5f8:	e3403000 	movt	r3, #0
    a5fc:	e5933000 	ldr	r3, [r3]
    a600:	e2432001 	sub	r2, r3, #1
    a604:	e30f3f28 	movw	r3, #65320	; 0xff28
    a608:	e3403000 	movt	r3, #0
    a60c:	e5832000 	str	r2, [r3]
    a610:	e51b0008 	ldr	r0, [fp, #-8]
    a614:	ebfff6f3 	bl	81e8 <set_enable>
    a618:	e3a03000 	mov	r3, #0
    a61c:	ea000000 	b	a624 <timeslice_enable+0x70>
    a620:	e3e03000 	mvn	r3, #0
    a624:	e1a00003 	mov	r0, r3
    a628:	e24bd004 	sub	sp, fp, #4
    a62c:	e8bd8800 	pop	{fp, pc}

0000a630 <TaskDisp>:
    a630:	e92d4800 	push	{fp, lr}
    a634:	e28db004 	add	fp, sp, #4
    a638:	e24dd008 	sub	sp, sp, #8
    a63c:	e50b0008 	str	r0, [fp, #-8]
    a640:	e30f3f30 	movw	r3, #65328	; 0xff30
    a644:	e3403000 	movt	r3, #0
    a648:	e5933000 	ldr	r3, [r3]
    a64c:	e3530000 	cmp	r3, #0
    a650:	1a000185 	bne	ac6c <TaskDisp+0x63c>
    a654:	e30f3f30 	movw	r3, #65328	; 0xff30
    a658:	e3403000 	movt	r3, #0
    a65c:	e3a02001 	mov	r2, #1
    a660:	e5832000 	str	r2, [r3]
    a664:	e3003334 	movw	r3, #820	; 0x334
    a668:	e3403001 	movt	r3, #1
    a66c:	e5933000 	ldr	r3, [r3]
    a670:	e3530000 	cmp	r3, #0
    a674:	1a000177 	bne	ac58 <TaskDisp+0x628>
    a678:	e30f3ef8 	movw	r3, #65272	; 0xfef8
    a67c:	e3403000 	movt	r3, #0
    a680:	e5933000 	ldr	r3, [r3]
    a684:	e3530000 	cmp	r3, #0
    a688:	0a00016e 	beq	ac48 <TaskDisp+0x618>
    a68c:	e30f3ef4 	movw	r3, #65268	; 0xfef4
    a690:	e3403000 	movt	r3, #0
    a694:	e5933000 	ldr	r3, [r3]
    a698:	e1d325b4 	ldrh	r2, [r3, #84]	; 0x54
    a69c:	e30f3ef8 	movw	r3, #65272	; 0xfef8
    a6a0:	e3403000 	movt	r3, #0
    a6a4:	e5933000 	ldr	r3, [r3]
    a6a8:	e1d335b4 	ldrh	r3, [r3, #84]	; 0x54
    a6ac:	e1520003 	cmp	r2, r3
    a6b0:	2a00000b 	bcs	a6e4 <TaskDisp+0xb4>
    a6b4:	e30f3ef4 	movw	r3, #65268	; 0xfef4
    a6b8:	e3403000 	movt	r3, #0
    a6bc:	e5933000 	ldr	r3, [r3]
    a6c0:	e1d334b8 	ldrh	r3, [r3, #72]	; 0x48
    a6c4:	e3530003 	cmp	r3, #3
    a6c8:	0a000005 	beq	a6e4 <TaskDisp+0xb4>
    a6cc:	e30f3ef4 	movw	r3, #65268	; 0xfef4
    a6d0:	e3403000 	movt	r3, #0
    a6d4:	e5933000 	ldr	r3, [r3]
    a6d8:	e1d334b8 	ldrh	r3, [r3, #72]	; 0x48
    a6dc:	e3530005 	cmp	r3, #5
    a6e0:	1a000158 	bne	ac48 <TaskDisp+0x618>
    a6e4:	e30f3ef4 	movw	r3, #65268	; 0xfef4
    a6e8:	e3403000 	movt	r3, #0
    a6ec:	e5933000 	ldr	r3, [r3]
    a6f0:	e51b2008 	ldr	r2, [fp, #-8]
    a6f4:	e5922000 	ldr	r2, [r2]
    a6f8:	e5832000 	str	r2, [r3]
    a6fc:	e30f3ef4 	movw	r3, #65268	; 0xfef4
    a700:	e3403000 	movt	r3, #0
    a704:	e5933000 	ldr	r3, [r3]
    a708:	e51b2008 	ldr	r2, [fp, #-8]
    a70c:	e5922004 	ldr	r2, [r2, #4]
    a710:	e5832004 	str	r2, [r3, #4]
    a714:	e30f3ef4 	movw	r3, #65268	; 0xfef4
    a718:	e3403000 	movt	r3, #0
    a71c:	e5933000 	ldr	r3, [r3]
    a720:	e51b2008 	ldr	r2, [fp, #-8]
    a724:	e5922008 	ldr	r2, [r2, #8]
    a728:	e5832008 	str	r2, [r3, #8]
    a72c:	e30f3ef4 	movw	r3, #65268	; 0xfef4
    a730:	e3403000 	movt	r3, #0
    a734:	e5933000 	ldr	r3, [r3]
    a738:	e51b2008 	ldr	r2, [fp, #-8]
    a73c:	e592200c 	ldr	r2, [r2, #12]
    a740:	e583200c 	str	r2, [r3, #12]
    a744:	e30f3ef4 	movw	r3, #65268	; 0xfef4
    a748:	e3403000 	movt	r3, #0
    a74c:	e5933000 	ldr	r3, [r3]
    a750:	e51b2008 	ldr	r2, [fp, #-8]
    a754:	e5922010 	ldr	r2, [r2, #16]
    a758:	e5832010 	str	r2, [r3, #16]
    a75c:	e30f3ef4 	movw	r3, #65268	; 0xfef4
    a760:	e3403000 	movt	r3, #0
    a764:	e5933000 	ldr	r3, [r3]
    a768:	e51b2008 	ldr	r2, [fp, #-8]
    a76c:	e5922014 	ldr	r2, [r2, #20]
    a770:	e5832014 	str	r2, [r3, #20]
    a774:	e30f3ef4 	movw	r3, #65268	; 0xfef4
    a778:	e3403000 	movt	r3, #0
    a77c:	e5933000 	ldr	r3, [r3]
    a780:	e51b2008 	ldr	r2, [fp, #-8]
    a784:	e5922018 	ldr	r2, [r2, #24]
    a788:	e5832018 	str	r2, [r3, #24]
    a78c:	e30f3ef4 	movw	r3, #65268	; 0xfef4
    a790:	e3403000 	movt	r3, #0
    a794:	e5933000 	ldr	r3, [r3]
    a798:	e51b2008 	ldr	r2, [fp, #-8]
    a79c:	e592201c 	ldr	r2, [r2, #28]
    a7a0:	e583201c 	str	r2, [r3, #28]
    a7a4:	e30f3ef4 	movw	r3, #65268	; 0xfef4
    a7a8:	e3403000 	movt	r3, #0
    a7ac:	e5933000 	ldr	r3, [r3]
    a7b0:	e51b2008 	ldr	r2, [fp, #-8]
    a7b4:	e5922020 	ldr	r2, [r2, #32]
    a7b8:	e5832020 	str	r2, [r3, #32]
    a7bc:	e30f3ef4 	movw	r3, #65268	; 0xfef4
    a7c0:	e3403000 	movt	r3, #0
    a7c4:	e5933000 	ldr	r3, [r3]
    a7c8:	e51b2008 	ldr	r2, [fp, #-8]
    a7cc:	e5922024 	ldr	r2, [r2, #36]	; 0x24
    a7d0:	e5832024 	str	r2, [r3, #36]	; 0x24
    a7d4:	e30f3ef4 	movw	r3, #65268	; 0xfef4
    a7d8:	e3403000 	movt	r3, #0
    a7dc:	e5933000 	ldr	r3, [r3]
    a7e0:	e51b2008 	ldr	r2, [fp, #-8]
    a7e4:	e5922028 	ldr	r2, [r2, #40]	; 0x28
    a7e8:	e5832028 	str	r2, [r3, #40]	; 0x28
    a7ec:	e30f3ef4 	movw	r3, #65268	; 0xfef4
    a7f0:	e3403000 	movt	r3, #0
    a7f4:	e5933000 	ldr	r3, [r3]
    a7f8:	e51b2008 	ldr	r2, [fp, #-8]
    a7fc:	e592202c 	ldr	r2, [r2, #44]	; 0x2c
    a800:	e583202c 	str	r2, [r3, #44]	; 0x2c
    a804:	e30f3ef4 	movw	r3, #65268	; 0xfef4
    a808:	e3403000 	movt	r3, #0
    a80c:	e5933000 	ldr	r3, [r3]
    a810:	e51b2008 	ldr	r2, [fp, #-8]
    a814:	e5922030 	ldr	r2, [r2, #48]	; 0x30
    a818:	e5832030 	str	r2, [r3, #48]	; 0x30
    a81c:	e30f3ef4 	movw	r3, #65268	; 0xfef4
    a820:	e3403000 	movt	r3, #0
    a824:	e5933000 	ldr	r3, [r3]
    a828:	e51b2008 	ldr	r2, [fp, #-8]
    a82c:	e5922034 	ldr	r2, [r2, #52]	; 0x34
    a830:	e5832034 	str	r2, [r3, #52]	; 0x34
    a834:	e30f3ef4 	movw	r3, #65268	; 0xfef4
    a838:	e3403000 	movt	r3, #0
    a83c:	e5933000 	ldr	r3, [r3]
    a840:	e51b2008 	ldr	r2, [fp, #-8]
    a844:	e5922038 	ldr	r2, [r2, #56]	; 0x38
    a848:	e5832038 	str	r2, [r3, #56]	; 0x38
    a84c:	e30f3ef4 	movw	r3, #65268	; 0xfef4
    a850:	e3403000 	movt	r3, #0
    a854:	e5933000 	ldr	r3, [r3]
    a858:	e51b2008 	ldr	r2, [fp, #-8]
    a85c:	e592203c 	ldr	r2, [r2, #60]	; 0x3c
    a860:	e583203c 	str	r2, [r3, #60]	; 0x3c
    a864:	e30f3ef4 	movw	r3, #65268	; 0xfef4
    a868:	e3403000 	movt	r3, #0
    a86c:	e5933000 	ldr	r3, [r3]
    a870:	e51b2008 	ldr	r2, [fp, #-8]
    a874:	e5922040 	ldr	r2, [r2, #64]	; 0x40
    a878:	e5832040 	str	r2, [r3, #64]	; 0x40
    a87c:	e30f3ef4 	movw	r3, #65268	; 0xfef4
    a880:	e3403000 	movt	r3, #0
    a884:	e5933000 	ldr	r3, [r3]
    a888:	e5932098 	ldr	r2, [r3, #152]	; 0x98
    a88c:	e300333c 	movw	r3, #828	; 0x33c
    a890:	e3403001 	movt	r3, #1
    a894:	e5933000 	ldr	r3, [r3]
    a898:	e1520003 	cmp	r2, r3
    a89c:	8a000011 	bhi	a8e8 <TaskDisp+0x2b8>
    a8a0:	e30f3ef4 	movw	r3, #65268	; 0xfef4
    a8a4:	e3403000 	movt	r3, #0
    a8a8:	e5933000 	ldr	r3, [r3]
    a8ac:	e593109c 	ldr	r1, [r3, #156]	; 0x9c
    a8b0:	e300333c 	movw	r3, #828	; 0x33c
    a8b4:	e3403001 	movt	r3, #1
    a8b8:	e5932000 	ldr	r2, [r3]
    a8bc:	e30f3ef4 	movw	r3, #65268	; 0xfef4
    a8c0:	e3403000 	movt	r3, #0
    a8c4:	e5933000 	ldr	r3, [r3]
    a8c8:	e5933098 	ldr	r3, [r3, #152]	; 0x98
    a8cc:	e0422003 	sub	r2, r2, r3
    a8d0:	e30f3ef4 	movw	r3, #65268	; 0xfef4
    a8d4:	e3403000 	movt	r3, #0
    a8d8:	e5933000 	ldr	r3, [r3]
    a8dc:	e0812002 	add	r2, r1, r2
    a8e0:	e583209c 	str	r2, [r3, #156]	; 0x9c
    a8e4:	ea000011 	b	a930 <TaskDisp+0x300>
    a8e8:	e30f3ef4 	movw	r3, #65268	; 0xfef4
    a8ec:	e3403000 	movt	r3, #0
    a8f0:	e5933000 	ldr	r3, [r3]
    a8f4:	e593209c 	ldr	r2, [r3, #156]	; 0x9c
    a8f8:	e300333c 	movw	r3, #828	; 0x33c
    a8fc:	e3403001 	movt	r3, #1
    a900:	e5931000 	ldr	r1, [r3]
    a904:	e30f3ef4 	movw	r3, #65268	; 0xfef4
    a908:	e3403000 	movt	r3, #0
    a90c:	e5933000 	ldr	r3, [r3]
    a910:	e5933098 	ldr	r3, [r3, #152]	; 0x98
    a914:	e0413003 	sub	r3, r1, r3
    a918:	e0822003 	add	r2, r2, r3
    a91c:	e30f3ef4 	movw	r3, #65268	; 0xfef4
    a920:	e3403000 	movt	r3, #0
    a924:	e5933000 	ldr	r3, [r3]
    a928:	e2422001 	sub	r2, r2, #1
    a92c:	e583209c 	str	r2, [r3, #156]	; 0x9c
    a930:	e30f3ef4 	movw	r3, #65268	; 0xfef4
    a934:	e3403000 	movt	r3, #0
    a938:	e5933000 	ldr	r3, [r3]
    a93c:	e59310a0 	ldr	r1, [r3, #160]	; 0xa0
    a940:	e30f3ef4 	movw	r3, #65268	; 0xfef4
    a944:	e3403000 	movt	r3, #0
    a948:	e5933000 	ldr	r3, [r3]
    a94c:	e593209c 	ldr	r2, [r3, #156]	; 0x9c
    a950:	e3043dd3 	movw	r3, #19923	; 0x4dd3
    a954:	e3413062 	movt	r3, #4194	; 0x1062
    a958:	e0832293 	umull	r2, r3, r3, r2
    a95c:	e1a02323 	lsr	r2, r3, #6
    a960:	e30f3ef4 	movw	r3, #65268	; 0xfef4
    a964:	e3403000 	movt	r3, #0
    a968:	e5933000 	ldr	r3, [r3]
    a96c:	e0812002 	add	r2, r1, r2
    a970:	e58320a0 	str	r2, [r3, #160]	; 0xa0
    a974:	e30f3ef4 	movw	r3, #65268	; 0xfef4
    a978:	e3403000 	movt	r3, #0
    a97c:	e5933000 	ldr	r3, [r3]
    a980:	e593209c 	ldr	r2, [r3, #156]	; 0x9c
    a984:	e30f3ef4 	movw	r3, #65268	; 0xfef4
    a988:	e3403000 	movt	r3, #0
    a98c:	e5931000 	ldr	r1, [r3]
    a990:	e3043dd3 	movw	r3, #19923	; 0x4dd3
    a994:	e3413062 	movt	r3, #4194	; 0x1062
    a998:	e0830293 	umull	r0, r3, r3, r2
    a99c:	e1a03323 	lsr	r3, r3, #6
    a9a0:	e3a00ffa 	mov	r0, #1000	; 0x3e8
    a9a4:	e0030390 	mul	r3, r0, r3
    a9a8:	e0423003 	sub	r3, r2, r3
    a9ac:	e581309c 	str	r3, [r1, #156]	; 0x9c
    a9b0:	e30f3ef4 	movw	r3, #65268	; 0xfef4
    a9b4:	e3403000 	movt	r3, #0
    a9b8:	e5933000 	ldr	r3, [r3]
    a9bc:	e1d334b8 	ldrh	r3, [r3, #72]	; 0x48
    a9c0:	e3530003 	cmp	r3, #3
    a9c4:	1a000005 	bne	a9e0 <TaskDisp+0x3b0>
    a9c8:	e30f3ef4 	movw	r3, #65268	; 0xfef4
    a9cc:	e3403000 	movt	r3, #0
    a9d0:	e5933000 	ldr	r3, [r3]
    a9d4:	e3a02004 	mov	r2, #4
    a9d8:	e1c324b8 	strh	r2, [r3, #72]	; 0x48
    a9dc:	ea00000a 	b	aa0c <TaskDisp+0x3dc>
    a9e0:	e30f3ef4 	movw	r3, #65268	; 0xfef4
    a9e4:	e3403000 	movt	r3, #0
    a9e8:	e5933000 	ldr	r3, [r3]
    a9ec:	e1d334b8 	ldrh	r3, [r3, #72]	; 0x48
    a9f0:	e3530005 	cmp	r3, #5
    a9f4:	0a000004 	beq	aa0c <TaskDisp+0x3dc>
    a9f8:	e30f3ef4 	movw	r3, #65268	; 0xfef4
    a9fc:	e3403000 	movt	r3, #0
    aa00:	e5933000 	ldr	r3, [r3]
    aa04:	e1a00003 	mov	r0, r3
    aa08:	ebfff603 	bl	821c <queue>
    aa0c:	e30f3ef8 	movw	r3, #65272	; 0xfef8
    aa10:	e3403000 	movt	r3, #0
    aa14:	e5932000 	ldr	r2, [r3]
    aa18:	e30f3efc 	movw	r3, #65276	; 0xfefc
    aa1c:	e3403000 	movt	r3, #0
    aa20:	e5933000 	ldr	r3, [r3]
    aa24:	e1520003 	cmp	r2, r3
    aa28:	1a000003 	bne	aa3c <TaskDisp+0x40c>
    aa2c:	e30f3efc 	movw	r3, #65276	; 0xfefc
    aa30:	e3403000 	movt	r3, #0
    aa34:	e3a02000 	mov	r2, #0
    aa38:	e5832000 	str	r2, [r3]
    aa3c:	e30f3ef8 	movw	r3, #65272	; 0xfef8
    aa40:	e3403000 	movt	r3, #0
    aa44:	e5932000 	ldr	r2, [r3]
    aa48:	e30f3ef4 	movw	r3, #65268	; 0xfef4
    aa4c:	e3403000 	movt	r3, #0
    aa50:	e5832000 	str	r2, [r3]
    aa54:	e30f3ef8 	movw	r3, #65272	; 0xfef8
    aa58:	e3403000 	movt	r3, #0
    aa5c:	e5933000 	ldr	r3, [r3]
    aa60:	e5932068 	ldr	r2, [r3, #104]	; 0x68
    aa64:	e30f3ef8 	movw	r3, #65272	; 0xfef8
    aa68:	e3403000 	movt	r3, #0
    aa6c:	e5832000 	str	r2, [r3]
    aa70:	e30f3ef4 	movw	r3, #65268	; 0xfef4
    aa74:	e3403000 	movt	r3, #0
    aa78:	e5933000 	ldr	r3, [r3]
    aa7c:	e3a02000 	mov	r2, #0
    aa80:	e5832068 	str	r2, [r3, #104]	; 0x68
    aa84:	e30f3ef4 	movw	r3, #65268	; 0xfef4
    aa88:	e3403000 	movt	r3, #0
    aa8c:	e5933000 	ldr	r3, [r3]
    aa90:	e5932000 	ldr	r2, [r3]
    aa94:	e51b3008 	ldr	r3, [fp, #-8]
    aa98:	e5832000 	str	r2, [r3]
    aa9c:	e30f3ef4 	movw	r3, #65268	; 0xfef4
    aaa0:	e3403000 	movt	r3, #0
    aaa4:	e5933000 	ldr	r3, [r3]
    aaa8:	e5932004 	ldr	r2, [r3, #4]
    aaac:	e51b3008 	ldr	r3, [fp, #-8]
    aab0:	e5832004 	str	r2, [r3, #4]
    aab4:	e30f3ef4 	movw	r3, #65268	; 0xfef4
    aab8:	e3403000 	movt	r3, #0
    aabc:	e5933000 	ldr	r3, [r3]
    aac0:	e5932008 	ldr	r2, [r3, #8]
    aac4:	e51b3008 	ldr	r3, [fp, #-8]
    aac8:	e5832008 	str	r2, [r3, #8]
    aacc:	e30f3ef4 	movw	r3, #65268	; 0xfef4
    aad0:	e3403000 	movt	r3, #0
    aad4:	e5933000 	ldr	r3, [r3]
    aad8:	e593200c 	ldr	r2, [r3, #12]
    aadc:	e51b3008 	ldr	r3, [fp, #-8]
    aae0:	e583200c 	str	r2, [r3, #12]
    aae4:	e30f3ef4 	movw	r3, #65268	; 0xfef4
    aae8:	e3403000 	movt	r3, #0
    aaec:	e5933000 	ldr	r3, [r3]
    aaf0:	e5932010 	ldr	r2, [r3, #16]
    aaf4:	e51b3008 	ldr	r3, [fp, #-8]
    aaf8:	e5832010 	str	r2, [r3, #16]
    aafc:	e30f3ef4 	movw	r3, #65268	; 0xfef4
    ab00:	e3403000 	movt	r3, #0
    ab04:	e5933000 	ldr	r3, [r3]
    ab08:	e5932014 	ldr	r2, [r3, #20]
    ab0c:	e51b3008 	ldr	r3, [fp, #-8]
    ab10:	e5832014 	str	r2, [r3, #20]
    ab14:	e30f3ef4 	movw	r3, #65268	; 0xfef4
    ab18:	e3403000 	movt	r3, #0
    ab1c:	e5933000 	ldr	r3, [r3]
    ab20:	e5932018 	ldr	r2, [r3, #24]
    ab24:	e51b3008 	ldr	r3, [fp, #-8]
    ab28:	e5832018 	str	r2, [r3, #24]
    ab2c:	e30f3ef4 	movw	r3, #65268	; 0xfef4
    ab30:	e3403000 	movt	r3, #0
    ab34:	e5933000 	ldr	r3, [r3]
    ab38:	e593201c 	ldr	r2, [r3, #28]
    ab3c:	e51b3008 	ldr	r3, [fp, #-8]
    ab40:	e583201c 	str	r2, [r3, #28]
    ab44:	e30f3ef4 	movw	r3, #65268	; 0xfef4
    ab48:	e3403000 	movt	r3, #0
    ab4c:	e5933000 	ldr	r3, [r3]
    ab50:	e5932020 	ldr	r2, [r3, #32]
    ab54:	e51b3008 	ldr	r3, [fp, #-8]
    ab58:	e5832020 	str	r2, [r3, #32]
    ab5c:	e30f3ef4 	movw	r3, #65268	; 0xfef4
    ab60:	e3403000 	movt	r3, #0
    ab64:	e5933000 	ldr	r3, [r3]
    ab68:	e5932024 	ldr	r2, [r3, #36]	; 0x24
    ab6c:	e51b3008 	ldr	r3, [fp, #-8]
    ab70:	e5832024 	str	r2, [r3, #36]	; 0x24
    ab74:	e30f3ef4 	movw	r3, #65268	; 0xfef4
    ab78:	e3403000 	movt	r3, #0
    ab7c:	e5933000 	ldr	r3, [r3]
    ab80:	e5932028 	ldr	r2, [r3, #40]	; 0x28
    ab84:	e51b3008 	ldr	r3, [fp, #-8]
    ab88:	e5832028 	str	r2, [r3, #40]	; 0x28
    ab8c:	e30f3ef4 	movw	r3, #65268	; 0xfef4
    ab90:	e3403000 	movt	r3, #0
    ab94:	e5933000 	ldr	r3, [r3]
    ab98:	e593202c 	ldr	r2, [r3, #44]	; 0x2c
    ab9c:	e51b3008 	ldr	r3, [fp, #-8]
    aba0:	e583202c 	str	r2, [r3, #44]	; 0x2c
    aba4:	e30f3ef4 	movw	r3, #65268	; 0xfef4
    aba8:	e3403000 	movt	r3, #0
    abac:	e5933000 	ldr	r3, [r3]
    abb0:	e5932030 	ldr	r2, [r3, #48]	; 0x30
    abb4:	e51b3008 	ldr	r3, [fp, #-8]
    abb8:	e5832030 	str	r2, [r3, #48]	; 0x30
    abbc:	e30f3ef4 	movw	r3, #65268	; 0xfef4
    abc0:	e3403000 	movt	r3, #0
    abc4:	e5933000 	ldr	r3, [r3]
    abc8:	e5932034 	ldr	r2, [r3, #52]	; 0x34
    abcc:	e51b3008 	ldr	r3, [fp, #-8]
    abd0:	e5832034 	str	r2, [r3, #52]	; 0x34
    abd4:	e30f3ef4 	movw	r3, #65268	; 0xfef4
    abd8:	e3403000 	movt	r3, #0
    abdc:	e5933000 	ldr	r3, [r3]
    abe0:	e5932038 	ldr	r2, [r3, #56]	; 0x38
    abe4:	e51b3008 	ldr	r3, [fp, #-8]
    abe8:	e5832038 	str	r2, [r3, #56]	; 0x38
    abec:	e30f3ef4 	movw	r3, #65268	; 0xfef4
    abf0:	e3403000 	movt	r3, #0
    abf4:	e5933000 	ldr	r3, [r3]
    abf8:	e593203c 	ldr	r2, [r3, #60]	; 0x3c
    abfc:	e51b3008 	ldr	r3, [fp, #-8]
    ac00:	e583203c 	str	r2, [r3, #60]	; 0x3c
    ac04:	e30f3ef4 	movw	r3, #65268	; 0xfef4
    ac08:	e3403000 	movt	r3, #0
    ac0c:	e5933000 	ldr	r3, [r3]
    ac10:	e5932040 	ldr	r2, [r3, #64]	; 0x40
    ac14:	e51b3008 	ldr	r3, [fp, #-8]
    ac18:	e5832040 	str	r2, [r3, #64]	; 0x40
    ac1c:	e30f3ef4 	movw	r3, #65268	; 0xfef4
    ac20:	e3403000 	movt	r3, #0
    ac24:	e5932000 	ldr	r2, [r3]
    ac28:	e300333c 	movw	r3, #828	; 0x33c
    ac2c:	e3403001 	movt	r3, #1
    ac30:	e5933000 	ldr	r3, [r3]
    ac34:	e5823098 	str	r3, [r2, #152]	; 0x98
    ac38:	e3003340 	movw	r3, #832	; 0x340
    ac3c:	e3403001 	movt	r3, #1
    ac40:	e3a02000 	mov	r2, #0
    ac44:	e5832000 	str	r2, [r3]
    ac48:	e30f3f2c 	movw	r3, #65324	; 0xff2c
    ac4c:	e3403000 	movt	r3, #0
    ac50:	e3a02000 	mov	r2, #0
    ac54:	e5832000 	str	r2, [r3]
    ac58:	e30f3f30 	movw	r3, #65328	; 0xff30
    ac5c:	e3403000 	movt	r3, #0
    ac60:	e3a02000 	mov	r2, #0
    ac64:	e5832000 	str	r2, [r3]
    ac68:	ea000000 	b	ac70 <TaskDisp+0x640>
    ac6c:	e320f000 	nop	{0}
    ac70:	e24bd004 	sub	sp, fp, #4
    ac74:	e8bd8800 	pop	{fp, pc}

0000ac78 <set_user_int70>:
    ac78:	e52db004 	push	{fp}		; (str fp, [sp, #-4]!)
    ac7c:	e28db000 	add	fp, sp, #0
    ac80:	e24dd00c 	sub	sp, sp, #12
    ac84:	e50b0008 	str	r0, [fp, #-8]
    ac88:	e24dd004 	sub	sp, sp, #4
    ac8c:	e52d0004 	push	{r0}		; (str r0, [sp, #-4]!)
    ac90:	e10f0000 	mrs	r0, CPSR
    ac94:	e58d0004 	str	r0, [sp, #4]
    ac98:	e49d0004 	pop	{r0}		; (ldr r0, [sp], #4)
    ac9c:	e3003334 	movw	r3, #820	; 0x334
    aca0:	e3403001 	movt	r3, #1
    aca4:	e5933000 	ldr	r3, [r3]
    aca8:	e2832001 	add	r2, r3, #1
    acac:	e3003334 	movw	r3, #820	; 0x334
    acb0:	e3403001 	movt	r3, #1
    acb4:	e5832000 	str	r2, [r3]
    acb8:	e52d0004 	push	{r0}		; (str r0, [sp, #-4]!)
    acbc:	e59d0004 	ldr	r0, [sp, #4]
    acc0:	e129f000 	msr	CPSR_fc, r0
    acc4:	e49d0004 	pop	{r0}		; (ldr r0, [sp], #4)
    acc8:	e28dd004 	add	sp, sp, #4
    accc:	e30f3f34 	movw	r3, #65332	; 0xff34
    acd0:	e3403000 	movt	r3, #0
    acd4:	e51b2008 	ldr	r2, [fp, #-8]
    acd8:	e5832000 	str	r2, [r3]
    acdc:	e24dd004 	sub	sp, sp, #4
    ace0:	e52d0004 	push	{r0}		; (str r0, [sp, #-4]!)
    ace4:	e10f0000 	mrs	r0, CPSR
    ace8:	e58d0004 	str	r0, [sp, #4]
    acec:	e49d0004 	pop	{r0}		; (ldr r0, [sp], #4)
    acf0:	e3003334 	movw	r3, #820	; 0x334
    acf4:	e3403001 	movt	r3, #1
    acf8:	e5933000 	ldr	r3, [r3]
    acfc:	e2432001 	sub	r2, r3, #1
    ad00:	e3003334 	movw	r3, #820	; 0x334
    ad04:	e3403001 	movt	r3, #1
    ad08:	e5832000 	str	r2, [r3]
    ad0c:	e52d0004 	push	{r0}		; (str r0, [sp, #-4]!)
    ad10:	e59d0004 	ldr	r0, [sp, #4]
    ad14:	e129f000 	msr	CPSR_fc, r0
    ad18:	e49d0004 	pop	{r0}		; (ldr r0, [sp], #4)
    ad1c:	e28dd004 	add	sp, sp, #4
    ad20:	e320f000 	nop	{0}
    ad24:	e28bd000 	add	sp, fp, #0
    ad28:	e49db004 	pop	{fp}		; (ldr fp, [sp], #4)
    ad2c:	e12fff1e 	bx	lr

0000ad30 <TimeIntOrig>:
    ad30:	e92d4800 	push	{fp, lr}
    ad34:	e28db004 	add	fp, sp, #4
    ad38:	e24dd010 	sub	sp, sp, #16
    ad3c:	e50b0010 	str	r0, [fp, #-16]
    ad40:	e300333c 	movw	r3, #828	; 0x33c
    ad44:	e3403001 	movt	r3, #1
    ad48:	e5933000 	ldr	r3, [r3]
    ad4c:	e2832001 	add	r2, r3, #1
    ad50:	e300333c 	movw	r3, #828	; 0x33c
    ad54:	e3403001 	movt	r3, #1
    ad58:	e5832000 	str	r2, [r3]
    ad5c:	e30f3f34 	movw	r3, #65332	; 0xff34
    ad60:	e3403000 	movt	r3, #0
    ad64:	e5933000 	ldr	r3, [r3]
    ad68:	e3530000 	cmp	r3, #0
    ad6c:	0a000025 	beq	ae08 <TimeIntOrig+0xd8>
    ad70:	e24dd004 	sub	sp, sp, #4
    ad74:	e52d0004 	push	{r0}		; (str r0, [sp, #-4]!)
    ad78:	e10f0000 	mrs	r0, CPSR
    ad7c:	e58d0004 	str	r0, [sp, #4]
    ad80:	e49d0004 	pop	{r0}		; (ldr r0, [sp], #4)
    ad84:	e3003334 	movw	r3, #820	; 0x334
    ad88:	e3403001 	movt	r3, #1
    ad8c:	e5933000 	ldr	r3, [r3]
    ad90:	e2832001 	add	r2, r3, #1
    ad94:	e3003334 	movw	r3, #820	; 0x334
    ad98:	e3403001 	movt	r3, #1
    ad9c:	e5832000 	str	r2, [r3]
    ada0:	e52d0004 	push	{r0}		; (str r0, [sp, #-4]!)
    ada4:	e59d0004 	ldr	r0, [sp, #4]
    ada8:	e129f000 	msr	CPSR_fc, r0
    adac:	e49d0004 	pop	{r0}		; (ldr r0, [sp], #4)
    adb0:	e28dd004 	add	sp, sp, #4
    adb4:	e30f3f34 	movw	r3, #65332	; 0xff34
    adb8:	e3403000 	movt	r3, #0
    adbc:	e5933000 	ldr	r3, [r3]
    adc0:	e12fff33 	blx	r3
    adc4:	e24dd004 	sub	sp, sp, #4
    adc8:	e52d0004 	push	{r0}		; (str r0, [sp, #-4]!)
    adcc:	e10f0000 	mrs	r0, CPSR
    add0:	e58d0004 	str	r0, [sp, #4]
    add4:	e49d0004 	pop	{r0}		; (ldr r0, [sp], #4)
    add8:	e3003334 	movw	r3, #820	; 0x334
    addc:	e3403001 	movt	r3, #1
    ade0:	e5933000 	ldr	r3, [r3]
    ade4:	e2432001 	sub	r2, r3, #1
    ade8:	e3003334 	movw	r3, #820	; 0x334
    adec:	e3403001 	movt	r3, #1
    adf0:	e5832000 	str	r2, [r3]
    adf4:	e52d0004 	push	{r0}		; (str r0, [sp, #-4]!)
    adf8:	e59d0004 	ldr	r0, [sp, #4]
    adfc:	e129f000 	msr	CPSR_fc, r0
    ae00:	e49d0004 	pop	{r0}		; (ldr r0, [sp], #4)
    ae04:	e28dd004 	add	sp, sp, #4
    ae08:	e30f3f14 	movw	r3, #65300	; 0xff14
    ae0c:	e3403000 	movt	r3, #0
    ae10:	e5933000 	ldr	r3, [r3]
    ae14:	e3730001 	cmn	r3, #1
    ae18:	0a00000e 	beq	ae58 <TimeIntOrig+0x128>
    ae1c:	e3003340 	movw	r3, #832	; 0x340
    ae20:	e3403001 	movt	r3, #1
    ae24:	e5932000 	ldr	r2, [r3]
    ae28:	e30f3f14 	movw	r3, #65300	; 0xff14
    ae2c:	e3403000 	movt	r3, #0
    ae30:	e5933000 	ldr	r3, [r3]
    ae34:	e1520003 	cmp	r2, r3
    ae38:	2a000006 	bcs	ae58 <TimeIntOrig+0x128>
    ae3c:	e3003340 	movw	r3, #832	; 0x340
    ae40:	e3403001 	movt	r3, #1
    ae44:	e5933000 	ldr	r3, [r3]
    ae48:	e2832001 	add	r2, r3, #1
    ae4c:	e3003340 	movw	r3, #832	; 0x340
    ae50:	e3403001 	movt	r3, #1
    ae54:	e5832000 	str	r2, [r3]
    ae58:	e30f3f0c 	movw	r3, #65292	; 0xff0c
    ae5c:	e3403000 	movt	r3, #0
    ae60:	e5933000 	ldr	r3, [r3]
    ae64:	e3530000 	cmp	r3, #0
    ae68:	1a000033 	bne	af3c <TimeIntOrig+0x20c>
    ae6c:	e30f3f00 	movw	r3, #65280	; 0xff00
    ae70:	e3403000 	movt	r3, #0
    ae74:	e5933000 	ldr	r3, [r3]
    ae78:	e3530000 	cmp	r3, #0
    ae7c:	0a00002e 	beq	af3c <TimeIntOrig+0x20c>
    ae80:	e30f3f00 	movw	r3, #65280	; 0xff00
    ae84:	e3403000 	movt	r3, #0
    ae88:	e5933000 	ldr	r3, [r3]
    ae8c:	e593204c 	ldr	r2, [r3, #76]	; 0x4c
    ae90:	e2422001 	sub	r2, r2, #1
    ae94:	e583204c 	str	r2, [r3, #76]	; 0x4c
    ae98:	e593304c 	ldr	r3, [r3, #76]	; 0x4c
    ae9c:	e3530000 	cmp	r3, #0
    aea0:	1a000025 	bne	af3c <TimeIntOrig+0x20c>
    aea4:	ea000015 	b	af00 <TimeIntOrig+0x1d0>
    aea8:	e30f3f00 	movw	r3, #65280	; 0xff00
    aeac:	e3403000 	movt	r3, #0
    aeb0:	e5933000 	ldr	r3, [r3]
    aeb4:	e3a02002 	mov	r2, #2
    aeb8:	e1c324b8 	strh	r2, [r3, #72]	; 0x48
    aebc:	e30f3f00 	movw	r3, #65280	; 0xff00
    aec0:	e3403000 	movt	r3, #0
    aec4:	e5933000 	ldr	r3, [r3]
    aec8:	e1d334b4 	ldrh	r3, [r3, #68]	; 0x44
    aecc:	e1a02003 	mov	r2, r3
    aed0:	e30f3f38 	movw	r3, #65336	; 0xff38
    aed4:	e3403000 	movt	r3, #0
    aed8:	e7933102 	ldr	r3, [r3, r2, lsl #2]
    aedc:	e1a00003 	mov	r0, r3
    aee0:	ebfff4cd 	bl	821c <queue>
    aee4:	e30f3f00 	movw	r3, #65280	; 0xff00
    aee8:	e3403000 	movt	r3, #0
    aeec:	e5933000 	ldr	r3, [r3]
    aef0:	e593206c 	ldr	r2, [r3, #108]	; 0x6c
    aef4:	e30f3f00 	movw	r3, #65280	; 0xff00
    aef8:	e3403000 	movt	r3, #0
    aefc:	e5832000 	str	r2, [r3]
    af00:	e30f3f00 	movw	r3, #65280	; 0xff00
    af04:	e3403000 	movt	r3, #0
    af08:	e5933000 	ldr	r3, [r3]
    af0c:	e3530000 	cmp	r3, #0
    af10:	0a000005 	beq	af2c <TimeIntOrig+0x1fc>
    af14:	e30f3f00 	movw	r3, #65280	; 0xff00
    af18:	e3403000 	movt	r3, #0
    af1c:	e5933000 	ldr	r3, [r3]
    af20:	e593304c 	ldr	r3, [r3, #76]	; 0x4c
    af24:	e3530000 	cmp	r3, #0
    af28:	0affffde 	beq	aea8 <TimeIntOrig+0x178>
    af2c:	e30f3f2c 	movw	r3, #65324	; 0xff2c
    af30:	e3403000 	movt	r3, #0
    af34:	e3a02001 	mov	r2, #1
    af38:	e5832000 	str	r2, [r3]
    af3c:	e30f3f10 	movw	r3, #65296	; 0xff10
    af40:	e3403000 	movt	r3, #0
    af44:	e5933000 	ldr	r3, [r3]
    af48:	e3530000 	cmp	r3, #0
    af4c:	1a000044 	bne	b064 <TimeIntOrig+0x334>
    af50:	e3003338 	movw	r3, #824	; 0x338
    af54:	e3403001 	movt	r3, #1
    af58:	e5933000 	ldr	r3, [r3]
    af5c:	e3530000 	cmp	r3, #0
    af60:	0a00003f 	beq	b064 <TimeIntOrig+0x334>
    af64:	e3003338 	movw	r3, #824	; 0x338
    af68:	e3403001 	movt	r3, #1
    af6c:	e5933000 	ldr	r3, [r3]
    af70:	e5932004 	ldr	r2, [r3, #4]
    af74:	e2422001 	sub	r2, r2, #1
    af78:	e5832004 	str	r2, [r3, #4]
    af7c:	e5933004 	ldr	r3, [r3, #4]
    af80:	e3530000 	cmp	r3, #0
    af84:	1a000036 	bne	b064 <TimeIntOrig+0x334>
    af88:	ea000026 	b	b028 <TimeIntOrig+0x2f8>
    af8c:	e3003338 	movw	r3, #824	; 0x338
    af90:	e3403001 	movt	r3, #1
    af94:	e5933000 	ldr	r3, [r3]
    af98:	e50b3008 	str	r3, [fp, #-8]
    af9c:	e3003338 	movw	r3, #824	; 0x338
    afa0:	e3403001 	movt	r3, #1
    afa4:	e5933000 	ldr	r3, [r3]
    afa8:	e5932028 	ldr	r2, [r3, #40]	; 0x28
    afac:	e3003338 	movw	r3, #824	; 0x338
    afb0:	e3403001 	movt	r3, #1
    afb4:	e5832000 	str	r2, [r3]
    afb8:	e51b3008 	ldr	r3, [fp, #-8]
    afbc:	e283200c 	add	r2, r3, #12
    afc0:	e51b3008 	ldr	r3, [fp, #-8]
    afc4:	e5933008 	ldr	r3, [r3, #8]
    afc8:	e1a01003 	mov	r1, r3
    afcc:	e1a00002 	mov	r0, r2
    afd0:	ebfffa1c 	bl	9848 <rlsm_count>
    afd4:	e51b3008 	ldr	r3, [fp, #-8]
    afd8:	e5933020 	ldr	r3, [r3, #32]
    afdc:	e3530000 	cmp	r3, #0
    afe0:	0a000006 	beq	b000 <TimeIntOrig+0x2d0>
    afe4:	e51b3008 	ldr	r3, [fp, #-8]
    afe8:	e5932020 	ldr	r2, [r3, #32]
    afec:	e51b3008 	ldr	r3, [fp, #-8]
    aff0:	e5933024 	ldr	r3, [r3, #36]	; 0x24
    aff4:	e1a01003 	mov	r1, r3
    aff8:	e1a00002 	mov	r0, r2
    affc:	ebfff896 	bl	925c <sptsk>
    b000:	e51b3008 	ldr	r3, [fp, #-8]
    b004:	e5933018 	ldr	r3, [r3, #24]
    b008:	e2033001 	and	r3, r3, #1
    b00c:	e3530000 	cmp	r3, #0
    b010:	0a000004 	beq	b028 <TimeIntOrig+0x2f8>
    b014:	e51b3008 	ldr	r3, [fp, #-8]
    b018:	e3a02000 	mov	r2, #0
    b01c:	e583201c 	str	r2, [r3, #28]
    b020:	e51b0008 	ldr	r0, [fp, #-8]
    b024:	eb000a34 	bl	d8fc <start_timer>
    b028:	e3003338 	movw	r3, #824	; 0x338
    b02c:	e3403001 	movt	r3, #1
    b030:	e5933000 	ldr	r3, [r3]
    b034:	e3530000 	cmp	r3, #0
    b038:	0a000005 	beq	b054 <TimeIntOrig+0x324>
    b03c:	e3003338 	movw	r3, #824	; 0x338
    b040:	e3403001 	movt	r3, #1
    b044:	e5933000 	ldr	r3, [r3]
    b048:	e5933004 	ldr	r3, [r3, #4]
    b04c:	e3530000 	cmp	r3, #0
    b050:	0affffcd 	beq	af8c <TimeIntOrig+0x25c>
    b054:	e30f3f2c 	movw	r3, #65324	; 0xff2c
    b058:	e3403000 	movt	r3, #0
    b05c:	e3a02001 	mov	r2, #1
    b060:	e5832000 	str	r2, [r3]
    b064:	e3003344 	movw	r3, #836	; 0x344
    b068:	e3403001 	movt	r3, #1
    b06c:	e5933000 	ldr	r3, [r3]
    b070:	e3530000 	cmp	r3, #0
    b074:	0a00000b 	beq	b0a8 <TimeIntOrig+0x378>
    b078:	e3003344 	movw	r3, #836	; 0x344
    b07c:	e3403001 	movt	r3, #1
    b080:	e5933000 	ldr	r3, [r3]
    b084:	e3730001 	cmn	r3, #1
    b088:	0a000006 	beq	b0a8 <TimeIntOrig+0x378>
    b08c:	e3003344 	movw	r3, #836	; 0x344
    b090:	e3403001 	movt	r3, #1
    b094:	e5933000 	ldr	r3, [r3]
    b098:	e2432001 	sub	r2, r3, #1
    b09c:	e3003344 	movw	r3, #836	; 0x344
    b0a0:	e3403001 	movt	r3, #1
    b0a4:	e5832000 	str	r2, [r3]
    b0a8:	e30f3f30 	movw	r3, #65328	; 0xff30
    b0ac:	e3403000 	movt	r3, #0
    b0b0:	e5933000 	ldr	r3, [r3]
    b0b4:	e3530000 	cmp	r3, #0
    b0b8:	1a0001a4 	bne	b750 <TimeIntOrig+0xa20>
    b0bc:	e30f3f30 	movw	r3, #65328	; 0xff30
    b0c0:	e3403000 	movt	r3, #0
    b0c4:	e3a02001 	mov	r2, #1
    b0c8:	e5832000 	str	r2, [r3]
    b0cc:	e3003334 	movw	r3, #820	; 0x334
    b0d0:	e3403001 	movt	r3, #1
    b0d4:	e5933000 	ldr	r3, [r3]
    b0d8:	e3530000 	cmp	r3, #0
    b0dc:	1a000196 	bne	b73c <TimeIntOrig+0xa0c>
    b0e0:	e30f3f28 	movw	r3, #65320	; 0xff28
    b0e4:	e3403000 	movt	r3, #0
    b0e8:	e5933000 	ldr	r3, [r3]
    b0ec:	e3530000 	cmp	r3, #0
    b0f0:	1a000191 	bne	b73c <TimeIntOrig+0xa0c>
    b0f4:	e3003340 	movw	r3, #832	; 0x340
    b0f8:	e3403001 	movt	r3, #1
    b0fc:	e5932000 	ldr	r2, [r3]
    b100:	e30f3f14 	movw	r3, #65300	; 0xff14
    b104:	e3403000 	movt	r3, #0
    b108:	e5933000 	ldr	r3, [r3]
    b10c:	e1520003 	cmp	r2, r3
    b110:	0a000009 	beq	b13c <TimeIntOrig+0x40c>
    b114:	e3003344 	movw	r3, #836	; 0x344
    b118:	e3403001 	movt	r3, #1
    b11c:	e5933000 	ldr	r3, [r3]
    b120:	e3530000 	cmp	r3, #0
    b124:	0a000004 	beq	b13c <TimeIntOrig+0x40c>
    b128:	e30f3f2c 	movw	r3, #65324	; 0xff2c
    b12c:	e3403000 	movt	r3, #0
    b130:	e5933000 	ldr	r3, [r3]
    b134:	e3530000 	cmp	r3, #0
    b138:	0a00017f 	beq	b73c <TimeIntOrig+0xa0c>
    b13c:	e30f3ef8 	movw	r3, #65272	; 0xfef8
    b140:	e3403000 	movt	r3, #0
    b144:	e5933000 	ldr	r3, [r3]
    b148:	e3530000 	cmp	r3, #0
    b14c:	0a000176 	beq	b72c <TimeIntOrig+0x9fc>
    b150:	e30f3ef4 	movw	r3, #65268	; 0xfef4
    b154:	e3403000 	movt	r3, #0
    b158:	e5933000 	ldr	r3, [r3]
    b15c:	e1d325b4 	ldrh	r2, [r3, #84]	; 0x54
    b160:	e30f3ef8 	movw	r3, #65272	; 0xfef8
    b164:	e3403000 	movt	r3, #0
    b168:	e5933000 	ldr	r3, [r3]
    b16c:	e1d335b4 	ldrh	r3, [r3, #84]	; 0x54
    b170:	e1520003 	cmp	r2, r3
    b174:	2a00000b 	bcs	b1a8 <TimeIntOrig+0x478>
    b178:	e30f3ef4 	movw	r3, #65268	; 0xfef4
    b17c:	e3403000 	movt	r3, #0
    b180:	e5933000 	ldr	r3, [r3]
    b184:	e1d334b8 	ldrh	r3, [r3, #72]	; 0x48
    b188:	e3530003 	cmp	r3, #3
    b18c:	0a000005 	beq	b1a8 <TimeIntOrig+0x478>
    b190:	e30f3ef4 	movw	r3, #65268	; 0xfef4
    b194:	e3403000 	movt	r3, #0
    b198:	e5933000 	ldr	r3, [r3]
    b19c:	e1d334b8 	ldrh	r3, [r3, #72]	; 0x48
    b1a0:	e3530005 	cmp	r3, #5
    b1a4:	1a000160 	bne	b72c <TimeIntOrig+0x9fc>
    b1a8:	e30f3ef4 	movw	r3, #65268	; 0xfef4
    b1ac:	e3403000 	movt	r3, #0
    b1b0:	e5933000 	ldr	r3, [r3]
    b1b4:	e51b2010 	ldr	r2, [fp, #-16]
    b1b8:	e5922000 	ldr	r2, [r2]
    b1bc:	e5832000 	str	r2, [r3]
    b1c0:	e30f3ef4 	movw	r3, #65268	; 0xfef4
    b1c4:	e3403000 	movt	r3, #0
    b1c8:	e5933000 	ldr	r3, [r3]
    b1cc:	e51b2010 	ldr	r2, [fp, #-16]
    b1d0:	e5922004 	ldr	r2, [r2, #4]
    b1d4:	e5832004 	str	r2, [r3, #4]
    b1d8:	e30f3ef4 	movw	r3, #65268	; 0xfef4
    b1dc:	e3403000 	movt	r3, #0
    b1e0:	e5933000 	ldr	r3, [r3]
    b1e4:	e51b2010 	ldr	r2, [fp, #-16]
    b1e8:	e5922008 	ldr	r2, [r2, #8]
    b1ec:	e5832008 	str	r2, [r3, #8]
    b1f0:	e30f3ef4 	movw	r3, #65268	; 0xfef4
    b1f4:	e3403000 	movt	r3, #0
    b1f8:	e5933000 	ldr	r3, [r3]
    b1fc:	e51b2010 	ldr	r2, [fp, #-16]
    b200:	e592200c 	ldr	r2, [r2, #12]
    b204:	e583200c 	str	r2, [r3, #12]
    b208:	e30f3ef4 	movw	r3, #65268	; 0xfef4
    b20c:	e3403000 	movt	r3, #0
    b210:	e5933000 	ldr	r3, [r3]
    b214:	e51b2010 	ldr	r2, [fp, #-16]
    b218:	e5922010 	ldr	r2, [r2, #16]
    b21c:	e5832010 	str	r2, [r3, #16]
    b220:	e30f3ef4 	movw	r3, #65268	; 0xfef4
    b224:	e3403000 	movt	r3, #0
    b228:	e5933000 	ldr	r3, [r3]
    b22c:	e51b2010 	ldr	r2, [fp, #-16]
    b230:	e5922014 	ldr	r2, [r2, #20]
    b234:	e5832014 	str	r2, [r3, #20]
    b238:	e30f3ef4 	movw	r3, #65268	; 0xfef4
    b23c:	e3403000 	movt	r3, #0
    b240:	e5933000 	ldr	r3, [r3]
    b244:	e51b2010 	ldr	r2, [fp, #-16]
    b248:	e5922018 	ldr	r2, [r2, #24]
    b24c:	e5832018 	str	r2, [r3, #24]
    b250:	e30f3ef4 	movw	r3, #65268	; 0xfef4
    b254:	e3403000 	movt	r3, #0
    b258:	e5933000 	ldr	r3, [r3]
    b25c:	e51b2010 	ldr	r2, [fp, #-16]
    b260:	e592201c 	ldr	r2, [r2, #28]
    b264:	e583201c 	str	r2, [r3, #28]
    b268:	e30f3ef4 	movw	r3, #65268	; 0xfef4
    b26c:	e3403000 	movt	r3, #0
    b270:	e5933000 	ldr	r3, [r3]
    b274:	e51b2010 	ldr	r2, [fp, #-16]
    b278:	e5922020 	ldr	r2, [r2, #32]
    b27c:	e5832020 	str	r2, [r3, #32]
    b280:	e30f3ef4 	movw	r3, #65268	; 0xfef4
    b284:	e3403000 	movt	r3, #0
    b288:	e5933000 	ldr	r3, [r3]
    b28c:	e51b2010 	ldr	r2, [fp, #-16]
    b290:	e5922024 	ldr	r2, [r2, #36]	; 0x24
    b294:	e5832024 	str	r2, [r3, #36]	; 0x24
    b298:	e30f3ef4 	movw	r3, #65268	; 0xfef4
    b29c:	e3403000 	movt	r3, #0
    b2a0:	e5933000 	ldr	r3, [r3]
    b2a4:	e51b2010 	ldr	r2, [fp, #-16]
    b2a8:	e5922028 	ldr	r2, [r2, #40]	; 0x28
    b2ac:	e5832028 	str	r2, [r3, #40]	; 0x28
    b2b0:	e30f3ef4 	movw	r3, #65268	; 0xfef4
    b2b4:	e3403000 	movt	r3, #0
    b2b8:	e5933000 	ldr	r3, [r3]
    b2bc:	e51b2010 	ldr	r2, [fp, #-16]
    b2c0:	e592202c 	ldr	r2, [r2, #44]	; 0x2c
    b2c4:	e583202c 	str	r2, [r3, #44]	; 0x2c
    b2c8:	e30f3ef4 	movw	r3, #65268	; 0xfef4
    b2cc:	e3403000 	movt	r3, #0
    b2d0:	e5933000 	ldr	r3, [r3]
    b2d4:	e51b2010 	ldr	r2, [fp, #-16]
    b2d8:	e5922030 	ldr	r2, [r2, #48]	; 0x30
    b2dc:	e5832030 	str	r2, [r3, #48]	; 0x30
    b2e0:	e30f3ef4 	movw	r3, #65268	; 0xfef4
    b2e4:	e3403000 	movt	r3, #0
    b2e8:	e5933000 	ldr	r3, [r3]
    b2ec:	e51b2010 	ldr	r2, [fp, #-16]
    b2f0:	e5922034 	ldr	r2, [r2, #52]	; 0x34
    b2f4:	e5832034 	str	r2, [r3, #52]	; 0x34
    b2f8:	e30f3ef4 	movw	r3, #65268	; 0xfef4
    b2fc:	e3403000 	movt	r3, #0
    b300:	e5933000 	ldr	r3, [r3]
    b304:	e51b2010 	ldr	r2, [fp, #-16]
    b308:	e5922038 	ldr	r2, [r2, #56]	; 0x38
    b30c:	e5832038 	str	r2, [r3, #56]	; 0x38
    b310:	e30f3ef4 	movw	r3, #65268	; 0xfef4
    b314:	e3403000 	movt	r3, #0
    b318:	e5933000 	ldr	r3, [r3]
    b31c:	e51b2010 	ldr	r2, [fp, #-16]
    b320:	e592203c 	ldr	r2, [r2, #60]	; 0x3c
    b324:	e583203c 	str	r2, [r3, #60]	; 0x3c
    b328:	e30f3ef4 	movw	r3, #65268	; 0xfef4
    b32c:	e3403000 	movt	r3, #0
    b330:	e5933000 	ldr	r3, [r3]
    b334:	e51b2010 	ldr	r2, [fp, #-16]
    b338:	e5922040 	ldr	r2, [r2, #64]	; 0x40
    b33c:	e5832040 	str	r2, [r3, #64]	; 0x40
    b340:	e30f3ef4 	movw	r3, #65268	; 0xfef4
    b344:	e3403000 	movt	r3, #0
    b348:	e5933000 	ldr	r3, [r3]
    b34c:	e5932098 	ldr	r2, [r3, #152]	; 0x98
    b350:	e300333c 	movw	r3, #828	; 0x33c
    b354:	e3403001 	movt	r3, #1
    b358:	e5933000 	ldr	r3, [r3]
    b35c:	e1520003 	cmp	r2, r3
    b360:	8a000011 	bhi	b3ac <TimeIntOrig+0x67c>
    b364:	e30f3ef4 	movw	r3, #65268	; 0xfef4
    b368:	e3403000 	movt	r3, #0
    b36c:	e5933000 	ldr	r3, [r3]
    b370:	e593109c 	ldr	r1, [r3, #156]	; 0x9c
    b374:	e300333c 	movw	r3, #828	; 0x33c
    b378:	e3403001 	movt	r3, #1
    b37c:	e5932000 	ldr	r2, [r3]
    b380:	e30f3ef4 	movw	r3, #65268	; 0xfef4
    b384:	e3403000 	movt	r3, #0
    b388:	e5933000 	ldr	r3, [r3]
    b38c:	e5933098 	ldr	r3, [r3, #152]	; 0x98
    b390:	e0422003 	sub	r2, r2, r3
    b394:	e30f3ef4 	movw	r3, #65268	; 0xfef4
    b398:	e3403000 	movt	r3, #0
    b39c:	e5933000 	ldr	r3, [r3]
    b3a0:	e0812002 	add	r2, r1, r2
    b3a4:	e583209c 	str	r2, [r3, #156]	; 0x9c
    b3a8:	ea000011 	b	b3f4 <TimeIntOrig+0x6c4>
    b3ac:	e30f3ef4 	movw	r3, #65268	; 0xfef4
    b3b0:	e3403000 	movt	r3, #0
    b3b4:	e5933000 	ldr	r3, [r3]
    b3b8:	e593209c 	ldr	r2, [r3, #156]	; 0x9c
    b3bc:	e300333c 	movw	r3, #828	; 0x33c
    b3c0:	e3403001 	movt	r3, #1
    b3c4:	e5931000 	ldr	r1, [r3]
    b3c8:	e30f3ef4 	movw	r3, #65268	; 0xfef4
    b3cc:	e3403000 	movt	r3, #0
    b3d0:	e5933000 	ldr	r3, [r3]
    b3d4:	e5933098 	ldr	r3, [r3, #152]	; 0x98
    b3d8:	e0413003 	sub	r3, r1, r3
    b3dc:	e0822003 	add	r2, r2, r3
    b3e0:	e30f3ef4 	movw	r3, #65268	; 0xfef4
    b3e4:	e3403000 	movt	r3, #0
    b3e8:	e5933000 	ldr	r3, [r3]
    b3ec:	e2422001 	sub	r2, r2, #1
    b3f0:	e583209c 	str	r2, [r3, #156]	; 0x9c
    b3f4:	e30f3ef4 	movw	r3, #65268	; 0xfef4
    b3f8:	e3403000 	movt	r3, #0
    b3fc:	e5933000 	ldr	r3, [r3]
    b400:	e59310a0 	ldr	r1, [r3, #160]	; 0xa0
    b404:	e30f3ef4 	movw	r3, #65268	; 0xfef4
    b408:	e3403000 	movt	r3, #0
    b40c:	e5933000 	ldr	r3, [r3]
    b410:	e593209c 	ldr	r2, [r3, #156]	; 0x9c
    b414:	e3043dd3 	movw	r3, #19923	; 0x4dd3
    b418:	e3413062 	movt	r3, #4194	; 0x1062
    b41c:	e0832293 	umull	r2, r3, r3, r2
    b420:	e1a02323 	lsr	r2, r3, #6
    b424:	e30f3ef4 	movw	r3, #65268	; 0xfef4
    b428:	e3403000 	movt	r3, #0
    b42c:	e5933000 	ldr	r3, [r3]
    b430:	e0812002 	add	r2, r1, r2
    b434:	e58320a0 	str	r2, [r3, #160]	; 0xa0
    b438:	e30f3ef4 	movw	r3, #65268	; 0xfef4
    b43c:	e3403000 	movt	r3, #0
    b440:	e5933000 	ldr	r3, [r3]
    b444:	e593209c 	ldr	r2, [r3, #156]	; 0x9c
    b448:	e30f3ef4 	movw	r3, #65268	; 0xfef4
    b44c:	e3403000 	movt	r3, #0
    b450:	e5931000 	ldr	r1, [r3]
    b454:	e3043dd3 	movw	r3, #19923	; 0x4dd3
    b458:	e3413062 	movt	r3, #4194	; 0x1062
    b45c:	e0830293 	umull	r0, r3, r3, r2
    b460:	e1a03323 	lsr	r3, r3, #6
    b464:	e3a00ffa 	mov	r0, #1000	; 0x3e8
    b468:	e0030390 	mul	r3, r0, r3
    b46c:	e0423003 	sub	r3, r2, r3
    b470:	e581309c 	str	r3, [r1, #156]	; 0x9c
    b474:	e30f3ef4 	movw	r3, #65268	; 0xfef4
    b478:	e3403000 	movt	r3, #0
    b47c:	e5933000 	ldr	r3, [r3]
    b480:	e1d334b8 	ldrh	r3, [r3, #72]	; 0x48
    b484:	e3530003 	cmp	r3, #3
    b488:	1a000005 	bne	b4a4 <TimeIntOrig+0x774>
    b48c:	e30f3ef4 	movw	r3, #65268	; 0xfef4
    b490:	e3403000 	movt	r3, #0
    b494:	e5933000 	ldr	r3, [r3]
    b498:	e3a02004 	mov	r2, #4
    b49c:	e1c324b8 	strh	r2, [r3, #72]	; 0x48
    b4a0:	ea00000a 	b	b4d0 <TimeIntOrig+0x7a0>
    b4a4:	e30f3ef4 	movw	r3, #65268	; 0xfef4
    b4a8:	e3403000 	movt	r3, #0
    b4ac:	e5933000 	ldr	r3, [r3]
    b4b0:	e1d334b8 	ldrh	r3, [r3, #72]	; 0x48
    b4b4:	e3530005 	cmp	r3, #5
    b4b8:	0a000004 	beq	b4d0 <TimeIntOrig+0x7a0>
    b4bc:	e30f3ef4 	movw	r3, #65268	; 0xfef4
    b4c0:	e3403000 	movt	r3, #0
    b4c4:	e5933000 	ldr	r3, [r3]
    b4c8:	e1a00003 	mov	r0, r3
    b4cc:	ebfff352 	bl	821c <queue>
    b4d0:	e30f3ef8 	movw	r3, #65272	; 0xfef8
    b4d4:	e3403000 	movt	r3, #0
    b4d8:	e5932000 	ldr	r2, [r3]
    b4dc:	e30f3efc 	movw	r3, #65276	; 0xfefc
    b4e0:	e3403000 	movt	r3, #0
    b4e4:	e5933000 	ldr	r3, [r3]
    b4e8:	e1520003 	cmp	r2, r3
    b4ec:	1a000003 	bne	b500 <TimeIntOrig+0x7d0>
    b4f0:	e30f3efc 	movw	r3, #65276	; 0xfefc
    b4f4:	e3403000 	movt	r3, #0
    b4f8:	e3a02000 	mov	r2, #0
    b4fc:	e5832000 	str	r2, [r3]
    b500:	e30f3ef8 	movw	r3, #65272	; 0xfef8
    b504:	e3403000 	movt	r3, #0
    b508:	e5932000 	ldr	r2, [r3]
    b50c:	e30f3ef4 	movw	r3, #65268	; 0xfef4
    b510:	e3403000 	movt	r3, #0
    b514:	e5832000 	str	r2, [r3]
    b518:	e30f3ef8 	movw	r3, #65272	; 0xfef8
    b51c:	e3403000 	movt	r3, #0
    b520:	e5933000 	ldr	r3, [r3]
    b524:	e5932068 	ldr	r2, [r3, #104]	; 0x68
    b528:	e30f3ef8 	movw	r3, #65272	; 0xfef8
    b52c:	e3403000 	movt	r3, #0
    b530:	e5832000 	str	r2, [r3]
    b534:	e30f3ef4 	movw	r3, #65268	; 0xfef4
    b538:	e3403000 	movt	r3, #0
    b53c:	e5933000 	ldr	r3, [r3]
    b540:	e3a02000 	mov	r2, #0
    b544:	e5832068 	str	r2, [r3, #104]	; 0x68
    b548:	e30f3ef4 	movw	r3, #65268	; 0xfef4
    b54c:	e3403000 	movt	r3, #0
    b550:	e5933000 	ldr	r3, [r3]
    b554:	e5932000 	ldr	r2, [r3]
    b558:	e51b3010 	ldr	r3, [fp, #-16]
    b55c:	e5832000 	str	r2, [r3]
    b560:	e30f3ef4 	movw	r3, #65268	; 0xfef4
    b564:	e3403000 	movt	r3, #0
    b568:	e5933000 	ldr	r3, [r3]
    b56c:	e5932004 	ldr	r2, [r3, #4]
    b570:	e51b3010 	ldr	r3, [fp, #-16]
    b574:	e5832004 	str	r2, [r3, #4]
    b578:	e30f3ef4 	movw	r3, #65268	; 0xfef4
    b57c:	e3403000 	movt	r3, #0
    b580:	e5933000 	ldr	r3, [r3]
    b584:	e5932008 	ldr	r2, [r3, #8]
    b588:	e51b3010 	ldr	r3, [fp, #-16]
    b58c:	e5832008 	str	r2, [r3, #8]
    b590:	e30f3ef4 	movw	r3, #65268	; 0xfef4
    b594:	e3403000 	movt	r3, #0
    b598:	e5933000 	ldr	r3, [r3]
    b59c:	e593200c 	ldr	r2, [r3, #12]
    b5a0:	e51b3010 	ldr	r3, [fp, #-16]
    b5a4:	e583200c 	str	r2, [r3, #12]
    b5a8:	e30f3ef4 	movw	r3, #65268	; 0xfef4
    b5ac:	e3403000 	movt	r3, #0
    b5b0:	e5933000 	ldr	r3, [r3]
    b5b4:	e5932010 	ldr	r2, [r3, #16]
    b5b8:	e51b3010 	ldr	r3, [fp, #-16]
    b5bc:	e5832010 	str	r2, [r3, #16]
    b5c0:	e30f3ef4 	movw	r3, #65268	; 0xfef4
    b5c4:	e3403000 	movt	r3, #0
    b5c8:	e5933000 	ldr	r3, [r3]
    b5cc:	e5932014 	ldr	r2, [r3, #20]
    b5d0:	e51b3010 	ldr	r3, [fp, #-16]
    b5d4:	e5832014 	str	r2, [r3, #20]
    b5d8:	e30f3ef4 	movw	r3, #65268	; 0xfef4
    b5dc:	e3403000 	movt	r3, #0
    b5e0:	e5933000 	ldr	r3, [r3]
    b5e4:	e5932018 	ldr	r2, [r3, #24]
    b5e8:	e51b3010 	ldr	r3, [fp, #-16]
    b5ec:	e5832018 	str	r2, [r3, #24]
    b5f0:	e30f3ef4 	movw	r3, #65268	; 0xfef4
    b5f4:	e3403000 	movt	r3, #0
    b5f8:	e5933000 	ldr	r3, [r3]
    b5fc:	e593201c 	ldr	r2, [r3, #28]
    b600:	e51b3010 	ldr	r3, [fp, #-16]
    b604:	e583201c 	str	r2, [r3, #28]
    b608:	e30f3ef4 	movw	r3, #65268	; 0xfef4
    b60c:	e3403000 	movt	r3, #0
    b610:	e5933000 	ldr	r3, [r3]
    b614:	e5932020 	ldr	r2, [r3, #32]
    b618:	e51b3010 	ldr	r3, [fp, #-16]
    b61c:	e5832020 	str	r2, [r3, #32]
    b620:	e30f3ef4 	movw	r3, #65268	; 0xfef4
    b624:	e3403000 	movt	r3, #0
    b628:	e5933000 	ldr	r3, [r3]
    b62c:	e5932024 	ldr	r2, [r3, #36]	; 0x24
    b630:	e51b3010 	ldr	r3, [fp, #-16]
    b634:	e5832024 	str	r2, [r3, #36]	; 0x24
    b638:	e30f3ef4 	movw	r3, #65268	; 0xfef4
    b63c:	e3403000 	movt	r3, #0
    b640:	e5933000 	ldr	r3, [r3]
    b644:	e5932028 	ldr	r2, [r3, #40]	; 0x28
    b648:	e51b3010 	ldr	r3, [fp, #-16]
    b64c:	e5832028 	str	r2, [r3, #40]	; 0x28
    b650:	e30f3ef4 	movw	r3, #65268	; 0xfef4
    b654:	e3403000 	movt	r3, #0
    b658:	e5933000 	ldr	r3, [r3]
    b65c:	e593202c 	ldr	r2, [r3, #44]	; 0x2c
    b660:	e51b3010 	ldr	r3, [fp, #-16]
    b664:	e583202c 	str	r2, [r3, #44]	; 0x2c
    b668:	e30f3ef4 	movw	r3, #65268	; 0xfef4
    b66c:	e3403000 	movt	r3, #0
    b670:	e5933000 	ldr	r3, [r3]
    b674:	e5932030 	ldr	r2, [r3, #48]	; 0x30
    b678:	e51b3010 	ldr	r3, [fp, #-16]
    b67c:	e5832030 	str	r2, [r3, #48]	; 0x30
    b680:	e30f3ef4 	movw	r3, #65268	; 0xfef4
    b684:	e3403000 	movt	r3, #0
    b688:	e5933000 	ldr	r3, [r3]
    b68c:	e5932034 	ldr	r2, [r3, #52]	; 0x34
    b690:	e51b3010 	ldr	r3, [fp, #-16]
    b694:	e5832034 	str	r2, [r3, #52]	; 0x34
    b698:	e30f3ef4 	movw	r3, #65268	; 0xfef4
    b69c:	e3403000 	movt	r3, #0
    b6a0:	e5933000 	ldr	r3, [r3]
    b6a4:	e5932038 	ldr	r2, [r3, #56]	; 0x38
    b6a8:	e51b3010 	ldr	r3, [fp, #-16]
    b6ac:	e5832038 	str	r2, [r3, #56]	; 0x38
    b6b0:	e30f3ef4 	movw	r3, #65268	; 0xfef4
    b6b4:	e3403000 	movt	r3, #0
    b6b8:	e5933000 	ldr	r3, [r3]
    b6bc:	e593203c 	ldr	r2, [r3, #60]	; 0x3c
    b6c0:	e51b3010 	ldr	r3, [fp, #-16]
    b6c4:	e583203c 	str	r2, [r3, #60]	; 0x3c
    b6c8:	e30f3ef4 	movw	r3, #65268	; 0xfef4
    b6cc:	e3403000 	movt	r3, #0
    b6d0:	e5933000 	ldr	r3, [r3]
    b6d4:	e5932040 	ldr	r2, [r3, #64]	; 0x40
    b6d8:	e51b3010 	ldr	r3, [fp, #-16]
    b6dc:	e5832040 	str	r2, [r3, #64]	; 0x40
    b6e0:	e30f3ef4 	movw	r3, #65268	; 0xfef4
    b6e4:	e3403000 	movt	r3, #0
    b6e8:	e5932000 	ldr	r2, [r3]
    b6ec:	e300333c 	movw	r3, #828	; 0x33c
    b6f0:	e3403001 	movt	r3, #1
    b6f4:	e5933000 	ldr	r3, [r3]
    b6f8:	e5823098 	str	r3, [r2, #152]	; 0x98
    b6fc:	e3003340 	movw	r3, #832	; 0x340
    b700:	e3403001 	movt	r3, #1
    b704:	e3a02000 	mov	r2, #0
    b708:	e5832000 	str	r2, [r3]
    b70c:	e30f3ef4 	movw	r3, #65268	; 0xfef4
    b710:	e3403000 	movt	r3, #0
    b714:	e5933000 	ldr	r3, [r3]
    b718:	e5933050 	ldr	r3, [r3, #80]	; 0x50
    b71c:	e1a02003 	mov	r2, r3
    b720:	e3003344 	movw	r3, #836	; 0x344
    b724:	e3403001 	movt	r3, #1
    b728:	e5832000 	str	r2, [r3]
    b72c:	e30f3f2c 	movw	r3, #65324	; 0xff2c
    b730:	e3403000 	movt	r3, #0
    b734:	e3a02000 	mov	r2, #0
    b738:	e5832000 	str	r2, [r3]
    b73c:	e30f3f30 	movw	r3, #65328	; 0xff30
    b740:	e3403000 	movt	r3, #0
    b744:	e3a02000 	mov	r2, #0
    b748:	e5832000 	str	r2, [r3]
    b74c:	ea000000 	b	b754 <TimeIntOrig+0xa24>
    b750:	e320f000 	nop	{0}
    b754:	e24bd004 	sub	sp, fp, #4
    b758:	e8bd8800 	pop	{fp, pc}

0000b75c <TimeInt>:
    b75c:	e92d4800 	push	{fp, lr}
    b760:	e28db004 	add	fp, sp, #4
    b764:	e24dd008 	sub	sp, sp, #8
    b768:	e50b0008 	str	r0, [fp, #-8]
    b76c:	e30f3f24 	movw	r3, #65316	; 0xff24
    b770:	e3403000 	movt	r3, #0
    b774:	e5933000 	ldr	r3, [r3]
    b778:	e3530064 	cmp	r3, #100	; 0x64
    b77c:	1a000004 	bne	b794 <TimeInt+0x38>
    b780:	e30f3f24 	movw	r3, #65316	; 0xff24
    b784:	e3403000 	movt	r3, #0
    b788:	e3a02000 	mov	r2, #0
    b78c:	e5832000 	str	r2, [r3]
    b790:	ea00001b 	b	b804 <TimeInt+0xa8>
    b794:	e30f3f20 	movw	r3, #65312	; 0xff20
    b798:	e3403000 	movt	r3, #0
    b79c:	e5933000 	ldr	r3, [r3]
    b7a0:	e2033001 	and	r3, r3, #1
    b7a4:	e3530000 	cmp	r3, #0
    b7a8:	1a00000e 	bne	b7e8 <TimeInt+0x8c>
    b7ac:	e30f3f20 	movw	r3, #65312	; 0xff20
    b7b0:	e3403000 	movt	r3, #0
    b7b4:	e5933000 	ldr	r3, [r3]
    b7b8:	e2832001 	add	r2, r3, #1
    b7bc:	e30f3f20 	movw	r3, #65312	; 0xff20
    b7c0:	e3403000 	movt	r3, #0
    b7c4:	e5832000 	str	r2, [r3]
    b7c8:	e30f3f24 	movw	r3, #65316	; 0xff24
    b7cc:	e3403000 	movt	r3, #0
    b7d0:	e5933000 	ldr	r3, [r3]
    b7d4:	e2832001 	add	r2, r3, #1
    b7d8:	e30f3f24 	movw	r3, #65316	; 0xff24
    b7dc:	e3403000 	movt	r3, #0
    b7e0:	e5832000 	str	r2, [r3]
    b7e4:	ea000006 	b	b804 <TimeInt+0xa8>
    b7e8:	e30f3f20 	movw	r3, #65312	; 0xff20
    b7ec:	e3403000 	movt	r3, #0
    b7f0:	e5933000 	ldr	r3, [r3]
    b7f4:	e2832001 	add	r2, r3, #1
    b7f8:	e30f3f20 	movw	r3, #65312	; 0xff20
    b7fc:	e3403000 	movt	r3, #0
    b800:	e5832000 	str	r2, [r3]
    b804:	e30f3f1c 	movw	r3, #65308	; 0xff1c
    b808:	e3403000 	movt	r3, #0
    b80c:	e5933000 	ldr	r3, [r3]
    b810:	e3530000 	cmp	r3, #0
    b814:	ba000027 	blt	b8b8 <TimeInt+0x15c>
    b818:	e30f3f1c 	movw	r3, #65308	; 0xff1c
    b81c:	e3403000 	movt	r3, #0
    b820:	e5933000 	ldr	r3, [r3]
    b824:	e353003b 	cmp	r3, #59	; 0x3b
    b828:	ca000022 	bgt	b8b8 <TimeInt+0x15c>
    b82c:	e30f3f24 	movw	r3, #65316	; 0xff24
    b830:	e3403000 	movt	r3, #0
    b834:	e5933000 	ldr	r3, [r3]
    b838:	e3530002 	cmp	r3, #2
    b83c:	ca000001 	bgt	b848 <TimeInt+0xec>
    b840:	e3a00015 	mov	r0, #21
    b844:	eb000ed9 	bl	f3b0 <RPI_SetGpioHi>
    b848:	e30f3f24 	movw	r3, #65316	; 0xff24
    b84c:	e3403000 	movt	r3, #0
    b850:	e5933000 	ldr	r3, [r3]
    b854:	e3530002 	cmp	r3, #2
    b858:	da000001 	ble	b864 <TimeInt+0x108>
    b85c:	e3a00015 	mov	r0, #21
    b860:	eb000ef4 	bl	f438 <RPI_SetGpioLo>
    b864:	e30f3f24 	movw	r3, #65316	; 0xff24
    b868:	e3403000 	movt	r3, #0
    b86c:	e5933000 	ldr	r3, [r3]
    b870:	e3530032 	cmp	r3, #50	; 0x32
    b874:	1a00000f 	bne	b8b8 <TimeInt+0x15c>
    b878:	e30f3f1c 	movw	r3, #65308	; 0xff1c
    b87c:	e3403000 	movt	r3, #0
    b880:	e5933000 	ldr	r3, [r3]
    b884:	e2832001 	add	r2, r3, #1
    b888:	e30f3f1c 	movw	r3, #65308	; 0xff1c
    b88c:	e3403000 	movt	r3, #0
    b890:	e5832000 	str	r2, [r3]
    b894:	e30f3f1c 	movw	r3, #65308	; 0xff1c
    b898:	e3403000 	movt	r3, #0
    b89c:	e5933000 	ldr	r3, [r3]
    b8a0:	e353003b 	cmp	r3, #59	; 0x3b
    b8a4:	ca000003 	bgt	b8b8 <TimeInt+0x15c>
    b8a8:	e30f3f24 	movw	r3, #65316	; 0xff24
    b8ac:	e3403000 	movt	r3, #0
    b8b0:	e3a02000 	mov	r2, #0
    b8b4:	e5832000 	str	r2, [r3]
    b8b8:	e30f3f1c 	movw	r3, #65308	; 0xff1c
    b8bc:	e3403000 	movt	r3, #0
    b8c0:	e5933000 	ldr	r3, [r3]
    b8c4:	e353003b 	cmp	r3, #59	; 0x3b
    b8c8:	da00002b 	ble	b97c <TimeInt+0x220>
    b8cc:	e30f3f1c 	movw	r3, #65308	; 0xff1c
    b8d0:	e3403000 	movt	r3, #0
    b8d4:	e5933000 	ldr	r3, [r3]
    b8d8:	e3530077 	cmp	r3, #119	; 0x77
    b8dc:	ca000026 	bgt	b97c <TimeInt+0x220>
    b8e0:	e30f3f24 	movw	r3, #65316	; 0xff24
    b8e4:	e3403000 	movt	r3, #0
    b8e8:	e5933000 	ldr	r3, [r3]
    b8ec:	e353003b 	cmp	r3, #59	; 0x3b
    b8f0:	ca000001 	bgt	b8fc <TimeInt+0x1a0>
    b8f4:	e3a00015 	mov	r0, #21
    b8f8:	eb000eac 	bl	f3b0 <RPI_SetGpioHi>
    b8fc:	e30f3f24 	movw	r3, #65316	; 0xff24
    b900:	e3403000 	movt	r3, #0
    b904:	e5933000 	ldr	r3, [r3]
    b908:	e353003b 	cmp	r3, #59	; 0x3b
    b90c:	da000001 	ble	b918 <TimeInt+0x1bc>
    b910:	e3a00015 	mov	r0, #21
    b914:	eb000ec7 	bl	f438 <RPI_SetGpioLo>
    b918:	e30f3f24 	movw	r3, #65316	; 0xff24
    b91c:	e3403000 	movt	r3, #0
    b920:	e5933000 	ldr	r3, [r3]
    b924:	e3530063 	cmp	r3, #99	; 0x63
    b928:	1a000013 	bne	b97c <TimeInt+0x220>
    b92c:	e30f3f1c 	movw	r3, #65308	; 0xff1c
    b930:	e3403000 	movt	r3, #0
    b934:	e5933000 	ldr	r3, [r3]
    b938:	e2832001 	add	r2, r3, #1
    b93c:	e30f3f1c 	movw	r3, #65308	; 0xff1c
    b940:	e3403000 	movt	r3, #0
    b944:	e5832000 	str	r2, [r3]
    b948:	e30f3f24 	movw	r3, #65316	; 0xff24
    b94c:	e3403000 	movt	r3, #0
    b950:	e3a02032 	mov	r2, #50	; 0x32
    b954:	e5832000 	str	r2, [r3]
    b958:	e30f3f1c 	movw	r3, #65308	; 0xff1c
    b95c:	e3403000 	movt	r3, #0
    b960:	e5933000 	ldr	r3, [r3]
    b964:	e3530078 	cmp	r3, #120	; 0x78
    b968:	1a000003 	bne	b97c <TimeInt+0x220>
    b96c:	e30f3f1c 	movw	r3, #65308	; 0xff1c
    b970:	e3403000 	movt	r3, #0
    b974:	e3a02000 	mov	r2, #0
    b978:	e5832000 	str	r2, [r3]
    b97c:	e51b0008 	ldr	r0, [fp, #-8]
    b980:	ebfffcea 	bl	ad30 <TimeIntOrig>
    b984:	e320f000 	nop	{0}
    b988:	e24bd004 	sub	sp, fp, #4
    b98c:	e8bd8800 	pop	{fp, pc}

0000b990 <create_task_mbox>:
    b990:	e92d4800 	push	{fp, lr}
    b994:	e28db004 	add	fp, sp, #4
    b998:	e24dd028 	sub	sp, sp, #40	; 0x28
    b99c:	e50b0020 	str	r0, [fp, #-32]	; 0xffffffe0
    b9a0:	e50b1024 	str	r1, [fp, #-36]	; 0xffffffdc
    b9a4:	e50b2028 	str	r2, [fp, #-40]	; 0xffffffd8
    b9a8:	e3a03000 	mov	r3, #0
    b9ac:	e50b300c 	str	r3, [fp, #-12]
    b9b0:	e51b3020 	ldr	r3, [fp, #-32]	; 0xffffffe0
    b9b4:	e3530000 	cmp	r3, #0
    b9b8:	da00000a 	ble	b9e8 <create_task_mbox+0x58>
    b9bc:	e51b2020 	ldr	r2, [fp, #-32]	; 0xffffffe0
    b9c0:	e30f3f08 	movw	r3, #65288	; 0xff08
    b9c4:	e3403000 	movt	r3, #0
    b9c8:	e5933000 	ldr	r3, [r3]
    b9cc:	e1520003 	cmp	r2, r3
    b9d0:	8a000004 	bhi	b9e8 <create_task_mbox+0x58>
    b9d4:	e30f3eb8 	movw	r3, #65208	; 0xfeb8
    b9d8:	e3403000 	movt	r3, #0
    b9dc:	e5933000 	ldr	r3, [r3]
    b9e0:	e3530001 	cmp	r3, #1
    b9e4:	1a000001 	bne	b9f0 <create_task_mbox+0x60>
    b9e8:	e3a03001 	mov	r3, #1
    b9ec:	ea000069 	b	bb98 <create_task_mbox+0x208>
    b9f0:	e30f3f38 	movw	r3, #65336	; 0xff38
    b9f4:	e3403000 	movt	r3, #0
    b9f8:	e51b2020 	ldr	r2, [fp, #-32]	; 0xffffffe0
    b9fc:	e7933102 	ldr	r3, [r3, r2, lsl #2]
    ba00:	e3530000 	cmp	r3, #0
    ba04:	1a000001 	bne	ba10 <create_task_mbox+0x80>
    ba08:	e3a03002 	mov	r3, #2
    ba0c:	ea000061 	b	bb98 <create_task_mbox+0x208>
    ba10:	ebfff1ea 	bl	81c0 <set_disable>
    ba14:	e50b0014 	str	r0, [fp, #-20]	; 0xffffffec
    ba18:	e30f3f38 	movw	r3, #65336	; 0xff38
    ba1c:	e3403000 	movt	r3, #0
    ba20:	e51b2020 	ldr	r2, [fp, #-32]	; 0xffffffe0
    ba24:	e7933102 	ldr	r3, [r3, r2, lsl #2]
    ba28:	e5933074 	ldr	r3, [r3, #116]	; 0x74
    ba2c:	e3530000 	cmp	r3, #0
    ba30:	0a000002 	beq	ba40 <create_task_mbox+0xb0>
    ba34:	e3a03003 	mov	r3, #3
    ba38:	e50b300c 	str	r3, [fp, #-12]
    ba3c:	ea000052 	b	bb8c <create_task_mbox+0x1fc>
    ba40:	e30f3f38 	movw	r3, #65336	; 0xff38
    ba44:	e3403000 	movt	r3, #0
    ba48:	e51b2020 	ldr	r2, [fp, #-32]	; 0xffffffe0
    ba4c:	e7933102 	ldr	r3, [r3, r2, lsl #2]
    ba50:	e2833074 	add	r3, r3, #116	; 0x74
    ba54:	e50b3018 	str	r3, [fp, #-24]	; 0xffffffe8
    ba58:	e3a02024 	mov	r2, #36	; 0x24
    ba5c:	e3a01000 	mov	r1, #0
    ba60:	e51b0018 	ldr	r0, [fp, #-24]	; 0xffffffe8
    ba64:	eb001011 	bl	fab0 <memse>
    ba68:	e51b3028 	ldr	r3, [fp, #-40]	; 0xffffffd8
    ba6c:	e2833004 	add	r3, r3, #4
    ba70:	e51b2024 	ldr	r2, [fp, #-36]	; 0xffffffdc
    ba74:	e0030392 	mul	r3, r2, r3
    ba78:	e2833018 	add	r3, r3, #24
    ba7c:	e1a00003 	mov	r0, r3
    ba80:	eb000f63 	bl	f814 <malloc>
    ba84:	e1a03000 	mov	r3, r0
    ba88:	e50b3010 	str	r3, [fp, #-16]
    ba8c:	e51b3010 	ldr	r3, [fp, #-16]
    ba90:	e3530000 	cmp	r3, #0
    ba94:	1a000002 	bne	baa4 <create_task_mbox+0x114>
    ba98:	e3a03004 	mov	r3, #4
    ba9c:	e50b300c 	str	r3, [fp, #-12]
    baa0:	ea000039 	b	bb8c <create_task_mbox+0x1fc>
    baa4:	e51b3018 	ldr	r3, [fp, #-24]	; 0xffffffe8
    baa8:	e51b2010 	ldr	r2, [fp, #-16]
    baac:	e5832018 	str	r2, [r3, #24]
    bab0:	e51b3024 	ldr	r3, [fp, #-36]	; 0xffffffdc
    bab4:	e1a03103 	lsl	r3, r3, #2
    bab8:	e51b2010 	ldr	r2, [fp, #-16]
    babc:	e0823003 	add	r3, r2, r3
    bac0:	e50b3010 	str	r3, [fp, #-16]
    bac4:	e3a03000 	mov	r3, #0
    bac8:	e50b3008 	str	r3, [fp, #-8]
    bacc:	ea00000d 	b	bb08 <create_task_mbox+0x178>
    bad0:	e51b3018 	ldr	r3, [fp, #-24]	; 0xffffffe8
    bad4:	e5932018 	ldr	r2, [r3, #24]
    bad8:	e51b3008 	ldr	r3, [fp, #-8]
    badc:	e1a03103 	lsl	r3, r3, #2
    bae0:	e0823003 	add	r3, r2, r3
    bae4:	e51b2010 	ldr	r2, [fp, #-16]
    bae8:	e5832000 	str	r2, [r3]
    baec:	e51b3008 	ldr	r3, [fp, #-8]
    baf0:	e2833001 	add	r3, r3, #1
    baf4:	e50b3008 	str	r3, [fp, #-8]
    baf8:	e51b2010 	ldr	r2, [fp, #-16]
    bafc:	e51b3028 	ldr	r3, [fp, #-40]	; 0xffffffd8
    bb00:	e0823003 	add	r3, r2, r3
    bb04:	e50b3010 	str	r3, [fp, #-16]
    bb08:	e51b3008 	ldr	r3, [fp, #-8]
    bb0c:	e51b2024 	ldr	r2, [fp, #-36]	; 0xffffffdc
    bb10:	e1520003 	cmp	r2, r3
    bb14:	8affffed 	bhi	bad0 <create_task_mbox+0x140>
    bb18:	e51b3018 	ldr	r3, [fp, #-24]	; 0xffffffe8
    bb1c:	e51b2010 	ldr	r2, [fp, #-16]
    bb20:	e583201c 	str	r2, [r3, #28]
    bb24:	e51b3010 	ldr	r3, [fp, #-16]
    bb28:	e283300c 	add	r3, r3, #12
    bb2c:	e50b3010 	str	r3, [fp, #-16]
    bb30:	e51b3018 	ldr	r3, [fp, #-24]	; 0xffffffe8
    bb34:	e51b2010 	ldr	r2, [fp, #-16]
    bb38:	e5832020 	str	r2, [r3, #32]
    bb3c:	e51b2024 	ldr	r2, [fp, #-36]	; 0xffffffdc
    bb40:	e51b3018 	ldr	r3, [fp, #-24]	; 0xffffffe8
    bb44:	e5832010 	str	r2, [r3, #16]
    bb48:	e51b2028 	ldr	r2, [fp, #-40]	; 0xffffffd8
    bb4c:	e51b3018 	ldr	r3, [fp, #-24]	; 0xffffffe8
    bb50:	e5832014 	str	r2, [r3, #20]
    bb54:	e51b3018 	ldr	r3, [fp, #-24]	; 0xffffffe8
    bb58:	e593301c 	ldr	r3, [r3, #28]
    bb5c:	e51b2024 	ldr	r2, [fp, #-36]	; 0xffffffdc
    bb60:	e1a01002 	mov	r1, r2
    bb64:	e1a00003 	mov	r0, r3
    bb68:	ebfff66e 	bl	9528 <dfsm>
    bb6c:	e51b3018 	ldr	r3, [fp, #-24]	; 0xffffffe8
    bb70:	e5933020 	ldr	r3, [r3, #32]
    bb74:	e3a01000 	mov	r1, #0
    bb78:	e1a00003 	mov	r0, r3
    bb7c:	ebfff669 	bl	9528 <dfsm>
    bb80:	e51b3018 	ldr	r3, [fp, #-24]	; 0xffffffe8
    bb84:	e3a02001 	mov	r2, #1
    bb88:	e5832000 	str	r2, [r3]
    bb8c:	e51b0014 	ldr	r0, [fp, #-20]	; 0xffffffec
    bb90:	ebfff194 	bl	81e8 <set_enable>
    bb94:	e51b300c 	ldr	r3, [fp, #-12]
    bb98:	e1a00003 	mov	r0, r3
    bb9c:	e24bd004 	sub	sp, fp, #4
    bba0:	e8bd8800 	pop	{fp, pc}

0000bba4 <clear_task_mbox>:
    bba4:	e92d4800 	push	{fp, lr}
    bba8:	e28db004 	add	fp, sp, #4
    bbac:	e24dd018 	sub	sp, sp, #24
    bbb0:	e50b0018 	str	r0, [fp, #-24]	; 0xffffffe8
    bbb4:	e3a03000 	mov	r3, #0
    bbb8:	e50b3008 	str	r3, [fp, #-8]
    bbbc:	e51b3018 	ldr	r3, [fp, #-24]	; 0xffffffe8
    bbc0:	e3530000 	cmp	r3, #0
    bbc4:	da00000a 	ble	bbf4 <clear_task_mbox+0x50>
    bbc8:	e51b2018 	ldr	r2, [fp, #-24]	; 0xffffffe8
    bbcc:	e30f3f08 	movw	r3, #65288	; 0xff08
    bbd0:	e3403000 	movt	r3, #0
    bbd4:	e5933000 	ldr	r3, [r3]
    bbd8:	e1520003 	cmp	r2, r3
    bbdc:	8a000004 	bhi	bbf4 <clear_task_mbox+0x50>
    bbe0:	e30f3eb8 	movw	r3, #65208	; 0xfeb8
    bbe4:	e3403000 	movt	r3, #0
    bbe8:	e5933000 	ldr	r3, [r3]
    bbec:	e3530001 	cmp	r3, #1
    bbf0:	1a000001 	bne	bbfc <clear_task_mbox+0x58>
    bbf4:	e3a03001 	mov	r3, #1
    bbf8:	ea000041 	b	bd04 <clear_task_mbox+0x160>
    bbfc:	e30f3f38 	movw	r3, #65336	; 0xff38
    bc00:	e3403000 	movt	r3, #0
    bc04:	e51b2018 	ldr	r2, [fp, #-24]	; 0xffffffe8
    bc08:	e7933102 	ldr	r3, [r3, r2, lsl #2]
    bc0c:	e3530000 	cmp	r3, #0
    bc10:	1a000001 	bne	bc1c <clear_task_mbox+0x78>
    bc14:	e3a03002 	mov	r3, #2
    bc18:	ea000039 	b	bd04 <clear_task_mbox+0x160>
    bc1c:	ebfff167 	bl	81c0 <set_disable>
    bc20:	e50b000c 	str	r0, [fp, #-12]
    bc24:	e30f3f38 	movw	r3, #65336	; 0xff38
    bc28:	e3403000 	movt	r3, #0
    bc2c:	e51b2018 	ldr	r2, [fp, #-24]	; 0xffffffe8
    bc30:	e7933102 	ldr	r3, [r3, r2, lsl #2]
    bc34:	e5933074 	ldr	r3, [r3, #116]	; 0x74
    bc38:	e3530004 	cmp	r3, #4
    bc3c:	1a000002 	bne	bc4c <clear_task_mbox+0xa8>
    bc40:	e3a03005 	mov	r3, #5
    bc44:	e50b3008 	str	r3, [fp, #-8]
    bc48:	ea00002a 	b	bcf8 <clear_task_mbox+0x154>
    bc4c:	e30f3f38 	movw	r3, #65336	; 0xff38
    bc50:	e3403000 	movt	r3, #0
    bc54:	e51b2018 	ldr	r2, [fp, #-24]	; 0xffffffe8
    bc58:	e7933102 	ldr	r3, [r3, r2, lsl #2]
    bc5c:	e5933074 	ldr	r3, [r3, #116]	; 0x74
    bc60:	e3530000 	cmp	r3, #0
    bc64:	1a000002 	bne	bc74 <clear_task_mbox+0xd0>
    bc68:	e3a03003 	mov	r3, #3
    bc6c:	e50b3008 	str	r3, [fp, #-8]
    bc70:	ea000020 	b	bcf8 <clear_task_mbox+0x154>
    bc74:	e30f3f38 	movw	r3, #65336	; 0xff38
    bc78:	e3403000 	movt	r3, #0
    bc7c:	e51b2018 	ldr	r2, [fp, #-24]	; 0xffffffe8
    bc80:	e7933102 	ldr	r3, [r3, r2, lsl #2]
    bc84:	e2833074 	add	r3, r3, #116	; 0x74
    bc88:	e50b3010 	str	r3, [fp, #-16]
    bc8c:	e51b3010 	ldr	r3, [fp, #-16]
    bc90:	e593301c 	ldr	r3, [r3, #28]
    bc94:	e5933004 	ldr	r3, [r3, #4]
    bc98:	e3530000 	cmp	r3, #0
    bc9c:	1a000004 	bne	bcb4 <clear_task_mbox+0x110>
    bca0:	e51b3010 	ldr	r3, [fp, #-16]
    bca4:	e5933020 	ldr	r3, [r3, #32]
    bca8:	e5933004 	ldr	r3, [r3, #4]
    bcac:	e3530000 	cmp	r3, #0
    bcb0:	0a000002 	beq	bcc0 <clear_task_mbox+0x11c>
    bcb4:	e3a03004 	mov	r3, #4
    bcb8:	e50b3008 	str	r3, [fp, #-8]
    bcbc:	ea00000d 	b	bcf8 <clear_task_mbox+0x154>
    bcc0:	e51b3010 	ldr	r3, [fp, #-16]
    bcc4:	e3a02000 	mov	r2, #0
    bcc8:	e583200c 	str	r2, [r3, #12]
    bccc:	e51b3010 	ldr	r3, [fp, #-16]
    bcd0:	e593200c 	ldr	r2, [r3, #12]
    bcd4:	e51b3010 	ldr	r3, [fp, #-16]
    bcd8:	e5832008 	str	r2, [r3, #8]
    bcdc:	e51b3010 	ldr	r3, [fp, #-16]
    bce0:	e5932008 	ldr	r2, [r3, #8]
    bce4:	e51b3010 	ldr	r3, [fp, #-16]
    bce8:	e5832004 	str	r2, [r3, #4]
    bcec:	e51b3010 	ldr	r3, [fp, #-16]
    bcf0:	e3a02001 	mov	r2, #1
    bcf4:	e5832000 	str	r2, [r3]
    bcf8:	e51b000c 	ldr	r0, [fp, #-12]
    bcfc:	ebfff139 	bl	81e8 <set_enable>
    bd00:	e51b3008 	ldr	r3, [fp, #-8]
    bd04:	e1a00003 	mov	r0, r3
    bd08:	e24bd004 	sub	sp, fp, #4
    bd0c:	e8bd8800 	pop	{fp, pc}

0000bd10 <delete_task_mbox>:
    bd10:	e92d4800 	push	{fp, lr}
    bd14:	e28db004 	add	fp, sp, #4
    bd18:	e24dd018 	sub	sp, sp, #24
    bd1c:	e50b0018 	str	r0, [fp, #-24]	; 0xffffffe8
    bd20:	e3a03000 	mov	r3, #0
    bd24:	e50b3008 	str	r3, [fp, #-8]
    bd28:	e51b3018 	ldr	r3, [fp, #-24]	; 0xffffffe8
    bd2c:	e3530000 	cmp	r3, #0
    bd30:	da00000a 	ble	bd60 <delete_task_mbox+0x50>
    bd34:	e51b2018 	ldr	r2, [fp, #-24]	; 0xffffffe8
    bd38:	e30f3f08 	movw	r3, #65288	; 0xff08
    bd3c:	e3403000 	movt	r3, #0
    bd40:	e5933000 	ldr	r3, [r3]
    bd44:	e1520003 	cmp	r2, r3
    bd48:	8a000004 	bhi	bd60 <delete_task_mbox+0x50>
    bd4c:	e30f3eb8 	movw	r3, #65208	; 0xfeb8
    bd50:	e3403000 	movt	r3, #0
    bd54:	e5933000 	ldr	r3, [r3]
    bd58:	e3530001 	cmp	r3, #1
    bd5c:	1a000001 	bne	bd68 <delete_task_mbox+0x58>
    bd60:	e3a03001 	mov	r3, #1
    bd64:	ea00003e 	b	be64 <delete_task_mbox+0x154>
    bd68:	e30f3f38 	movw	r3, #65336	; 0xff38
    bd6c:	e3403000 	movt	r3, #0
    bd70:	e51b2018 	ldr	r2, [fp, #-24]	; 0xffffffe8
    bd74:	e7933102 	ldr	r3, [r3, r2, lsl #2]
    bd78:	e3530000 	cmp	r3, #0
    bd7c:	1a000001 	bne	bd88 <delete_task_mbox+0x78>
    bd80:	e3a03002 	mov	r3, #2
    bd84:	ea000036 	b	be64 <delete_task_mbox+0x154>
    bd88:	ebfff10c 	bl	81c0 <set_disable>
    bd8c:	e50b000c 	str	r0, [fp, #-12]
    bd90:	e30f3f38 	movw	r3, #65336	; 0xff38
    bd94:	e3403000 	movt	r3, #0
    bd98:	e51b2018 	ldr	r2, [fp, #-24]	; 0xffffffe8
    bd9c:	e7933102 	ldr	r3, [r3, r2, lsl #2]
    bda0:	e5933074 	ldr	r3, [r3, #116]	; 0x74
    bda4:	e3530000 	cmp	r3, #0
    bda8:	1a000002 	bne	bdb8 <delete_task_mbox+0xa8>
    bdac:	e3a03003 	mov	r3, #3
    bdb0:	e50b3008 	str	r3, [fp, #-8]
    bdb4:	ea000027 	b	be58 <delete_task_mbox+0x148>
    bdb8:	e30f3f38 	movw	r3, #65336	; 0xff38
    bdbc:	e3403000 	movt	r3, #0
    bdc0:	e51b2018 	ldr	r2, [fp, #-24]	; 0xffffffe8
    bdc4:	e7933102 	ldr	r3, [r3, r2, lsl #2]
    bdc8:	e5933074 	ldr	r3, [r3, #116]	; 0x74
    bdcc:	e3530004 	cmp	r3, #4
    bdd0:	1a000002 	bne	bde0 <delete_task_mbox+0xd0>
    bdd4:	e3a03005 	mov	r3, #5
    bdd8:	e50b3008 	str	r3, [fp, #-8]
    bddc:	ea00001d 	b	be58 <delete_task_mbox+0x148>
    bde0:	e30f3f38 	movw	r3, #65336	; 0xff38
    bde4:	e3403000 	movt	r3, #0
    bde8:	e51b2018 	ldr	r2, [fp, #-24]	; 0xffffffe8
    bdec:	e7933102 	ldr	r3, [r3, r2, lsl #2]
    bdf0:	e2833074 	add	r3, r3, #116	; 0x74
    bdf4:	e50b3010 	str	r3, [fp, #-16]
    bdf8:	e51b3010 	ldr	r3, [fp, #-16]
    bdfc:	e593301c 	ldr	r3, [r3, #28]
    be00:	e5933004 	ldr	r3, [r3, #4]
    be04:	e3530000 	cmp	r3, #0
    be08:	1a000004 	bne	be20 <delete_task_mbox+0x110>
    be0c:	e51b3010 	ldr	r3, [fp, #-16]
    be10:	e5933020 	ldr	r3, [r3, #32]
    be14:	e5933004 	ldr	r3, [r3, #4]
    be18:	e3530000 	cmp	r3, #0
    be1c:	0a000002 	beq	be2c <delete_task_mbox+0x11c>
    be20:	e3a03004 	mov	r3, #4
    be24:	e50b3008 	str	r3, [fp, #-8]
    be28:	ea00000a 	b	be58 <delete_task_mbox+0x148>
    be2c:	e51b3010 	ldr	r3, [fp, #-16]
    be30:	e5933018 	ldr	r3, [r3, #24]
    be34:	e1a00003 	mov	r0, r3
    be38:	eb000ec1 	bl	f944 <free>
    be3c:	e3a02024 	mov	r2, #36	; 0x24
    be40:	e3a01000 	mov	r1, #0
    be44:	e51b0010 	ldr	r0, [fp, #-16]
    be48:	eb000f18 	bl	fab0 <memse>
    be4c:	e51b3010 	ldr	r3, [fp, #-16]
    be50:	e3a02000 	mov	r2, #0
    be54:	e5832000 	str	r2, [r3]
    be58:	e51b000c 	ldr	r0, [fp, #-12]
    be5c:	ebfff0e1 	bl	81e8 <set_enable>
    be60:	e51b3008 	ldr	r3, [fp, #-8]
    be64:	e1a00003 	mov	r0, r3
    be68:	e24bd004 	sub	sp, fp, #4
    be6c:	e8bd8800 	pop	{fp, pc}

0000be70 <task_mbox_messages>:
    be70:	e92d4800 	push	{fp, lr}
    be74:	e28db004 	add	fp, sp, #4
    be78:	e24dd018 	sub	sp, sp, #24
    be7c:	e50b0018 	str	r0, [fp, #-24]	; 0xffffffe8
    be80:	e51b3018 	ldr	r3, [fp, #-24]	; 0xffffffe8
    be84:	e3530000 	cmp	r3, #0
    be88:	da00000a 	ble	beb8 <task_mbox_messages+0x48>
    be8c:	e51b2018 	ldr	r2, [fp, #-24]	; 0xffffffe8
    be90:	e30f3f08 	movw	r3, #65288	; 0xff08
    be94:	e3403000 	movt	r3, #0
    be98:	e5933000 	ldr	r3, [r3]
    be9c:	e1520003 	cmp	r2, r3
    bea0:	8a000004 	bhi	beb8 <task_mbox_messages+0x48>
    bea4:	e30f3eb8 	movw	r3, #65208	; 0xfeb8
    bea8:	e3403000 	movt	r3, #0
    beac:	e5933000 	ldr	r3, [r3]
    beb0:	e3530001 	cmp	r3, #1
    beb4:	1a000001 	bne	bec0 <task_mbox_messages+0x50>
    beb8:	e3e03000 	mvn	r3, #0
    bebc:	ea00001f 	b	bf40 <task_mbox_messages+0xd0>
    bec0:	e30f3f38 	movw	r3, #65336	; 0xff38
    bec4:	e3403000 	movt	r3, #0
    bec8:	e51b2018 	ldr	r2, [fp, #-24]	; 0xffffffe8
    becc:	e7933102 	ldr	r3, [r3, r2, lsl #2]
    bed0:	e3530000 	cmp	r3, #0
    bed4:	1a000001 	bne	bee0 <task_mbox_messages+0x70>
    bed8:	e3e03001 	mvn	r3, #1
    bedc:	ea000017 	b	bf40 <task_mbox_messages+0xd0>
    bee0:	ebfff0b6 	bl	81c0 <set_disable>
    bee4:	e50b000c 	str	r0, [fp, #-12]
    bee8:	e30f3f38 	movw	r3, #65336	; 0xff38
    beec:	e3403000 	movt	r3, #0
    bef0:	e51b2018 	ldr	r2, [fp, #-24]	; 0xffffffe8
    bef4:	e7933102 	ldr	r3, [r3, r2, lsl #2]
    bef8:	e5933074 	ldr	r3, [r3, #116]	; 0x74
    befc:	e3530000 	cmp	r3, #0
    bf00:	1a000002 	bne	bf10 <task_mbox_messages+0xa0>
    bf04:	e3e03002 	mvn	r3, #2
    bf08:	e50b3008 	str	r3, [fp, #-8]
    bf0c:	ea000008 	b	bf34 <task_mbox_messages+0xc4>
    bf10:	e30f3f38 	movw	r3, #65336	; 0xff38
    bf14:	e3403000 	movt	r3, #0
    bf18:	e51b2018 	ldr	r2, [fp, #-24]	; 0xffffffe8
    bf1c:	e7933102 	ldr	r3, [r3, r2, lsl #2]
    bf20:	e2833074 	add	r3, r3, #116	; 0x74
    bf24:	e50b3010 	str	r3, [fp, #-16]
    bf28:	e51b3010 	ldr	r3, [fp, #-16]
    bf2c:	e593300c 	ldr	r3, [r3, #12]
    bf30:	e50b3008 	str	r3, [fp, #-8]
    bf34:	e51b000c 	ldr	r0, [fp, #-12]
    bf38:	ebfff0aa 	bl	81e8 <set_enable>
    bf3c:	e51b3008 	ldr	r3, [fp, #-8]
    bf40:	e1a00003 	mov	r0, r3
    bf44:	e24bd004 	sub	sp, fp, #4
    bf48:	e8bd8800 	pop	{fp, pc}

0000bf4c <send_task_message>:
    bf4c:	e92d4800 	push	{fp, lr}
    bf50:	e28db004 	add	fp, sp, #4
    bf54:	e24dd020 	sub	sp, sp, #32
    bf58:	e50b0018 	str	r0, [fp, #-24]	; 0xffffffe8
    bf5c:	e50b101c 	str	r1, [fp, #-28]	; 0xffffffe4
    bf60:	e50b2020 	str	r2, [fp, #-32]	; 0xffffffe0
    bf64:	e50b3024 	str	r3, [fp, #-36]	; 0xffffffdc
    bf68:	e51b3018 	ldr	r3, [fp, #-24]	; 0xffffffe8
    bf6c:	e3530000 	cmp	r3, #0
    bf70:	da00000a 	ble	bfa0 <send_task_message+0x54>
    bf74:	e51b2018 	ldr	r2, [fp, #-24]	; 0xffffffe8
    bf78:	e30f3f08 	movw	r3, #65288	; 0xff08
    bf7c:	e3403000 	movt	r3, #0
    bf80:	e5933000 	ldr	r3, [r3]
    bf84:	e1520003 	cmp	r2, r3
    bf88:	8a000004 	bhi	bfa0 <send_task_message+0x54>
    bf8c:	e30f3eb8 	movw	r3, #65208	; 0xfeb8
    bf90:	e3403000 	movt	r3, #0
    bf94:	e5933000 	ldr	r3, [r3]
    bf98:	e3530001 	cmp	r3, #1
    bf9c:	1a000001 	bne	bfa8 <send_task_message+0x5c>
    bfa0:	e3e03000 	mvn	r3, #0
    bfa4:	ea000070 	b	c16c <send_task_message+0x220>
    bfa8:	e30f3f38 	movw	r3, #65336	; 0xff38
    bfac:	e3403000 	movt	r3, #0
    bfb0:	e51b2018 	ldr	r2, [fp, #-24]	; 0xffffffe8
    bfb4:	e7933102 	ldr	r3, [r3, r2, lsl #2]
    bfb8:	e3530000 	cmp	r3, #0
    bfbc:	1a000001 	bne	bfc8 <send_task_message+0x7c>
    bfc0:	e3e03001 	mvn	r3, #1
    bfc4:	ea000068 	b	c16c <send_task_message+0x220>
    bfc8:	ebfff07c 	bl	81c0 <set_disable>
    bfcc:	e50b000c 	str	r0, [fp, #-12]
    bfd0:	e30f3f38 	movw	r3, #65336	; 0xff38
    bfd4:	e3403000 	movt	r3, #0
    bfd8:	e51b2018 	ldr	r2, [fp, #-24]	; 0xffffffe8
    bfdc:	e7933102 	ldr	r3, [r3, r2, lsl #2]
    bfe0:	e5933074 	ldr	r3, [r3, #116]	; 0x74
    bfe4:	e50b3010 	str	r3, [fp, #-16]
    bfe8:	e51b3010 	ldr	r3, [fp, #-16]
    bfec:	e3530000 	cmp	r3, #0
    bff0:	1a000003 	bne	c004 <send_task_message+0xb8>
    bff4:	e51b000c 	ldr	r0, [fp, #-12]
    bff8:	ebfff07a 	bl	81e8 <set_enable>
    bffc:	e3e03002 	mvn	r3, #2
    c000:	ea000059 	b	c16c <send_task_message+0x220>
    c004:	e30f3f38 	movw	r3, #65336	; 0xff38
    c008:	e3403000 	movt	r3, #0
    c00c:	e51b2018 	ldr	r2, [fp, #-24]	; 0xffffffe8
    c010:	e7933102 	ldr	r3, [r3, r2, lsl #2]
    c014:	e3a02004 	mov	r2, #4
    c018:	e5832074 	str	r2, [r3, #116]	; 0x74
    c01c:	e51b000c 	ldr	r0, [fp, #-12]
    c020:	ebfff070 	bl	81e8 <set_enable>
    c024:	e30f3f38 	movw	r3, #65336	; 0xff38
    c028:	e3403000 	movt	r3, #0
    c02c:	e51b2018 	ldr	r2, [fp, #-24]	; 0xffffffe8
    c030:	e7933102 	ldr	r3, [r3, r2, lsl #2]
    c034:	e2833074 	add	r3, r3, #116	; 0x74
    c038:	e50b3014 	str	r3, [fp, #-20]	; 0xffffffec
    c03c:	e51b3014 	ldr	r3, [fp, #-20]	; 0xffffffec
    c040:	e5933014 	ldr	r3, [r3, #20]
    c044:	e51b201c 	ldr	r2, [fp, #-28]	; 0xffffffe4
    c048:	e1520003 	cmp	r2, r3
    c04c:	da000002 	ble	c05c <send_task_message+0x110>
    c050:	e51b3014 	ldr	r3, [fp, #-20]	; 0xffffffec
    c054:	e5933014 	ldr	r3, [r3, #20]
    c058:	e50b301c 	str	r3, [fp, #-28]	; 0xffffffe4
    c05c:	e51b3014 	ldr	r3, [fp, #-20]	; 0xffffffec
    c060:	e593301c 	ldr	r3, [r3, #28]
    c064:	e1a00003 	mov	r0, r3
    c068:	ebfff541 	bl	9574 <rsvsm>
    c06c:	ebfff053 	bl	81c0 <set_disable>
    c070:	e50b000c 	str	r0, [fp, #-12]
    c074:	e51b3024 	ldr	r3, [fp, #-36]	; 0xffffffdc
    c078:	e3530000 	cmp	r3, #0
    c07c:	1a00000c 	bne	c0b4 <send_task_message+0x168>
    c080:	e51b3014 	ldr	r3, [fp, #-20]	; 0xffffffec
    c084:	e5933008 	ldr	r3, [r3, #8]
    c088:	e50b3008 	str	r3, [fp, #-8]
    c08c:	e51b3008 	ldr	r3, [fp, #-8]
    c090:	e2833001 	add	r3, r3, #1
    c094:	e51b2014 	ldr	r2, [fp, #-20]	; 0xffffffec
    c098:	e5922010 	ldr	r2, [r2, #16]
    c09c:	e711f213 	sdiv	r1, r3, r2
    c0a0:	e0020192 	mul	r2, r2, r1
    c0a4:	e0432002 	sub	r2, r3, r2
    c0a8:	e51b3014 	ldr	r3, [fp, #-20]	; 0xffffffec
    c0ac:	e5832008 	str	r2, [r3, #8]
    c0b0:	ea000011 	b	c0fc <send_task_message+0x1b0>
    c0b4:	e51b3014 	ldr	r3, [fp, #-20]	; 0xffffffec
    c0b8:	e5933004 	ldr	r3, [r3, #4]
    c0bc:	e3530000 	cmp	r3, #0
    c0c0:	0a000005 	beq	c0dc <send_task_message+0x190>
    c0c4:	e51b3014 	ldr	r3, [fp, #-20]	; 0xffffffec
    c0c8:	e5933004 	ldr	r3, [r3, #4]
    c0cc:	e2432001 	sub	r2, r3, #1
    c0d0:	e51b3014 	ldr	r3, [fp, #-20]	; 0xffffffec
    c0d4:	e5832004 	str	r2, [r3, #4]
    c0d8:	ea000004 	b	c0f0 <send_task_message+0x1a4>
    c0dc:	e51b3014 	ldr	r3, [fp, #-20]	; 0xffffffec
    c0e0:	e5933010 	ldr	r3, [r3, #16]
    c0e4:	e2432001 	sub	r2, r3, #1
    c0e8:	e51b3014 	ldr	r3, [fp, #-20]	; 0xffffffec
    c0ec:	e5832004 	str	r2, [r3, #4]
    c0f0:	e51b3014 	ldr	r3, [fp, #-20]	; 0xffffffec
    c0f4:	e5933004 	ldr	r3, [r3, #4]
    c0f8:	e50b3008 	str	r3, [fp, #-8]
    c0fc:	e51b3014 	ldr	r3, [fp, #-20]	; 0xffffffec
    c100:	e5932018 	ldr	r2, [r3, #24]
    c104:	e51b3008 	ldr	r3, [fp, #-8]
    c108:	e1a03103 	lsl	r3, r3, #2
    c10c:	e0823003 	add	r3, r2, r3
    c110:	e5933000 	ldr	r3, [r3]
    c114:	e51b201c 	ldr	r2, [fp, #-28]	; 0xffffffe4
    c118:	e51b1020 	ldr	r1, [fp, #-32]	; 0xffffffe0
    c11c:	e1a00003 	mov	r0, r3
    c120:	eb000e45 	bl	fa3c <memcp>
    c124:	e51b3014 	ldr	r3, [fp, #-20]	; 0xffffffec
    c128:	e593300c 	ldr	r3, [r3, #12]
    c12c:	e2832001 	add	r2, r3, #1
    c130:	e51b3014 	ldr	r3, [fp, #-20]	; 0xffffffec
    c134:	e583200c 	str	r2, [r3, #12]
    c138:	e51b000c 	ldr	r0, [fp, #-12]
    c13c:	ebfff029 	bl	81e8 <set_enable>
    c140:	e30f3f38 	movw	r3, #65336	; 0xff38
    c144:	e3403000 	movt	r3, #0
    c148:	e51b2018 	ldr	r2, [fp, #-24]	; 0xffffffe8
    c14c:	e7933102 	ldr	r3, [r3, r2, lsl #2]
    c150:	e51b2010 	ldr	r2, [fp, #-16]
    c154:	e5832074 	str	r2, [r3, #116]	; 0x74
    c158:	e51b3014 	ldr	r3, [fp, #-20]	; 0xffffffec
    c15c:	e5933020 	ldr	r3, [r3, #32]
    c160:	e1a00003 	mov	r0, r3
    c164:	ebfff569 	bl	9710 <rlsm>
    c168:	e51b301c 	ldr	r3, [fp, #-28]	; 0xffffffe4
    c16c:	e1a00003 	mov	r0, r3
    c170:	e24bd004 	sub	sp, fp, #4
    c174:	e8bd8800 	pop	{fp, pc}

0000c178 <send_cond_task_message>:
    c178:	e92d4800 	push	{fp, lr}
    c17c:	e28db004 	add	fp, sp, #4
    c180:	e24dd020 	sub	sp, sp, #32
    c184:	e50b0018 	str	r0, [fp, #-24]	; 0xffffffe8
    c188:	e50b101c 	str	r1, [fp, #-28]	; 0xffffffe4
    c18c:	e50b2020 	str	r2, [fp, #-32]	; 0xffffffe0
    c190:	e50b3024 	str	r3, [fp, #-36]	; 0xffffffdc
    c194:	e51b3018 	ldr	r3, [fp, #-24]	; 0xffffffe8
    c198:	e3530000 	cmp	r3, #0
    c19c:	da00000a 	ble	c1cc <send_cond_task_message+0x54>
    c1a0:	e51b2018 	ldr	r2, [fp, #-24]	; 0xffffffe8
    c1a4:	e30f3f08 	movw	r3, #65288	; 0xff08
    c1a8:	e3403000 	movt	r3, #0
    c1ac:	e5933000 	ldr	r3, [r3]
    c1b0:	e1520003 	cmp	r2, r3
    c1b4:	8a000004 	bhi	c1cc <send_cond_task_message+0x54>
    c1b8:	e30f3eb8 	movw	r3, #65208	; 0xfeb8
    c1bc:	e3403000 	movt	r3, #0
    c1c0:	e5933000 	ldr	r3, [r3]
    c1c4:	e3530001 	cmp	r3, #1
    c1c8:	1a000001 	bne	c1d4 <send_cond_task_message+0x5c>
    c1cc:	e3e03000 	mvn	r3, #0
    c1d0:	ea000068 	b	c378 <send_cond_task_message+0x200>
    c1d4:	e30f3f38 	movw	r3, #65336	; 0xff38
    c1d8:	e3403000 	movt	r3, #0
    c1dc:	e51b2018 	ldr	r2, [fp, #-24]	; 0xffffffe8
    c1e0:	e7933102 	ldr	r3, [r3, r2, lsl #2]
    c1e4:	e3530000 	cmp	r3, #0
    c1e8:	1a000001 	bne	c1f4 <send_cond_task_message+0x7c>
    c1ec:	e3e03001 	mvn	r3, #1
    c1f0:	ea000060 	b	c378 <send_cond_task_message+0x200>
    c1f4:	ebffeff1 	bl	81c0 <set_disable>
    c1f8:	e50b0014 	str	r0, [fp, #-20]	; 0xffffffec
    c1fc:	e30f3f38 	movw	r3, #65336	; 0xff38
    c200:	e3403000 	movt	r3, #0
    c204:	e51b2018 	ldr	r2, [fp, #-24]	; 0xffffffe8
    c208:	e7933102 	ldr	r3, [r3, r2, lsl #2]
    c20c:	e5933074 	ldr	r3, [r3, #116]	; 0x74
    c210:	e3530000 	cmp	r3, #0
    c214:	1a000002 	bne	c224 <send_cond_task_message+0xac>
    c218:	e3e03002 	mvn	r3, #2
    c21c:	e50b3008 	str	r3, [fp, #-8]
    c220:	ea00004d 	b	c35c <send_cond_task_message+0x1e4>
    c224:	e30f3f38 	movw	r3, #65336	; 0xff38
    c228:	e3403000 	movt	r3, #0
    c22c:	e51b2018 	ldr	r2, [fp, #-24]	; 0xffffffe8
    c230:	e7933102 	ldr	r3, [r3, r2, lsl #2]
    c234:	e2833074 	add	r3, r3, #116	; 0x74
    c238:	e50b3010 	str	r3, [fp, #-16]
    c23c:	e51b3010 	ldr	r3, [fp, #-16]
    c240:	e593200c 	ldr	r2, [r3, #12]
    c244:	e51b3010 	ldr	r3, [fp, #-16]
    c248:	e5933010 	ldr	r3, [r3, #16]
    c24c:	e1520003 	cmp	r2, r3
    c250:	1a000002 	bne	c260 <send_cond_task_message+0xe8>
    c254:	e3e03003 	mvn	r3, #3
    c258:	e50b3008 	str	r3, [fp, #-8]
    c25c:	ea00003e 	b	c35c <send_cond_task_message+0x1e4>
    c260:	e51b3010 	ldr	r3, [fp, #-16]
    c264:	e5933014 	ldr	r3, [r3, #20]
    c268:	e51b201c 	ldr	r2, [fp, #-28]	; 0xffffffe4
    c26c:	e1520003 	cmp	r2, r3
    c270:	da000002 	ble	c280 <send_cond_task_message+0x108>
    c274:	e51b3010 	ldr	r3, [fp, #-16]
    c278:	e5933014 	ldr	r3, [r3, #20]
    c27c:	e50b301c 	str	r3, [fp, #-28]	; 0xffffffe4
    c280:	e51b3010 	ldr	r3, [fp, #-16]
    c284:	e593301c 	ldr	r3, [r3, #28]
    c288:	e1a00003 	mov	r0, r3
    c28c:	ebfff4b8 	bl	9574 <rsvsm>
    c290:	e51b3024 	ldr	r3, [fp, #-36]	; 0xffffffdc
    c294:	e3530000 	cmp	r3, #0
    c298:	1a00000c 	bne	c2d0 <send_cond_task_message+0x158>
    c29c:	e51b3010 	ldr	r3, [fp, #-16]
    c2a0:	e5933008 	ldr	r3, [r3, #8]
    c2a4:	e50b300c 	str	r3, [fp, #-12]
    c2a8:	e51b300c 	ldr	r3, [fp, #-12]
    c2ac:	e2833001 	add	r3, r3, #1
    c2b0:	e51b2010 	ldr	r2, [fp, #-16]
    c2b4:	e5922010 	ldr	r2, [r2, #16]
    c2b8:	e711f213 	sdiv	r1, r3, r2
    c2bc:	e0020192 	mul	r2, r2, r1
    c2c0:	e0432002 	sub	r2, r3, r2
    c2c4:	e51b3010 	ldr	r3, [fp, #-16]
    c2c8:	e5832008 	str	r2, [r3, #8]
    c2cc:	ea000011 	b	c318 <send_cond_task_message+0x1a0>
    c2d0:	e51b3010 	ldr	r3, [fp, #-16]
    c2d4:	e5933004 	ldr	r3, [r3, #4]
    c2d8:	e3530000 	cmp	r3, #0
    c2dc:	0a000005 	beq	c2f8 <send_cond_task_message+0x180>
    c2e0:	e51b3010 	ldr	r3, [fp, #-16]
    c2e4:	e5933004 	ldr	r3, [r3, #4]
    c2e8:	e2432001 	sub	r2, r3, #1
    c2ec:	e51b3010 	ldr	r3, [fp, #-16]
    c2f0:	e5832004 	str	r2, [r3, #4]
    c2f4:	ea000004 	b	c30c <send_cond_task_message+0x194>
    c2f8:	e51b3010 	ldr	r3, [fp, #-16]
    c2fc:	e5933010 	ldr	r3, [r3, #16]
    c300:	e2432001 	sub	r2, r3, #1
    c304:	e51b3010 	ldr	r3, [fp, #-16]
    c308:	e5832004 	str	r2, [r3, #4]
    c30c:	e51b3010 	ldr	r3, [fp, #-16]
    c310:	e5933004 	ldr	r3, [r3, #4]
    c314:	e50b300c 	str	r3, [fp, #-12]
    c318:	e51b3010 	ldr	r3, [fp, #-16]
    c31c:	e5932018 	ldr	r2, [r3, #24]
    c320:	e51b300c 	ldr	r3, [fp, #-12]
    c324:	e1a03103 	lsl	r3, r3, #2
    c328:	e0823003 	add	r3, r2, r3
    c32c:	e5933000 	ldr	r3, [r3]
    c330:	e51b201c 	ldr	r2, [fp, #-28]	; 0xffffffe4
    c334:	e51b1020 	ldr	r1, [fp, #-32]	; 0xffffffe0
    c338:	e1a00003 	mov	r0, r3
    c33c:	eb000dbe 	bl	fa3c <memcp>
    c340:	e51b3010 	ldr	r3, [fp, #-16]
    c344:	e593300c 	ldr	r3, [r3, #12]
    c348:	e2832001 	add	r2, r3, #1
    c34c:	e51b3010 	ldr	r3, [fp, #-16]
    c350:	e583200c 	str	r2, [r3, #12]
    c354:	e51b301c 	ldr	r3, [fp, #-28]	; 0xffffffe4
    c358:	e50b3008 	str	r3, [fp, #-8]
    c35c:	e51b0014 	ldr	r0, [fp, #-20]	; 0xffffffec
    c360:	ebffefa0 	bl	81e8 <set_enable>
    c364:	e51b3010 	ldr	r3, [fp, #-16]
    c368:	e5933020 	ldr	r3, [r3, #32]
    c36c:	e1a00003 	mov	r0, r3
    c370:	ebfff4e6 	bl	9710 <rlsm>
    c374:	e51b3008 	ldr	r3, [fp, #-8]
    c378:	e1a00003 	mov	r0, r3
    c37c:	e24bd004 	sub	sp, fp, #4
    c380:	e8bd8800 	pop	{fp, pc}

0000c384 <get_task_message>:
    c384:	e92d4800 	push	{fp, lr}
    c388:	e28db004 	add	fp, sp, #4
    c38c:	e24dd018 	sub	sp, sp, #24
    c390:	e50b0018 	str	r0, [fp, #-24]	; 0xffffffe8
    c394:	e50b101c 	str	r1, [fp, #-28]	; 0xffffffe4
    c398:	ebfff07b 	bl	858c <gethandler>
    c39c:	e50b0008 	str	r0, [fp, #-8]
    c3a0:	e51b3008 	ldr	r3, [fp, #-8]
    c3a4:	e3530000 	cmp	r3, #0
    c3a8:	da00000a 	ble	c3d8 <get_task_message+0x54>
    c3ac:	e51b2008 	ldr	r2, [fp, #-8]
    c3b0:	e30f3f08 	movw	r3, #65288	; 0xff08
    c3b4:	e3403000 	movt	r3, #0
    c3b8:	e5933000 	ldr	r3, [r3]
    c3bc:	e1520003 	cmp	r2, r3
    c3c0:	8a000004 	bhi	c3d8 <get_task_message+0x54>
    c3c4:	e30f3eb8 	movw	r3, #65208	; 0xfeb8
    c3c8:	e3403000 	movt	r3, #0
    c3cc:	e5933000 	ldr	r3, [r3]
    c3d0:	e3530001 	cmp	r3, #1
    c3d4:	1a000001 	bne	c3e0 <get_task_message+0x5c>
    c3d8:	e3e03000 	mvn	r3, #0
    c3dc:	ea000059 	b	c548 <get_task_message+0x1c4>
    c3e0:	e30f3f38 	movw	r3, #65336	; 0xff38
    c3e4:	e3403000 	movt	r3, #0
    c3e8:	e51b2008 	ldr	r2, [fp, #-8]
    c3ec:	e7933102 	ldr	r3, [r3, r2, lsl #2]
    c3f0:	e3530000 	cmp	r3, #0
    c3f4:	1a000001 	bne	c400 <get_task_message+0x7c>
    c3f8:	e3e03001 	mvn	r3, #1
    c3fc:	ea000051 	b	c548 <get_task_message+0x1c4>
    c400:	ebffef6e 	bl	81c0 <set_disable>
    c404:	e50b000c 	str	r0, [fp, #-12]
    c408:	e30f3f38 	movw	r3, #65336	; 0xff38
    c40c:	e3403000 	movt	r3, #0
    c410:	e51b2008 	ldr	r2, [fp, #-8]
    c414:	e7933102 	ldr	r3, [r3, r2, lsl #2]
    c418:	e5933074 	ldr	r3, [r3, #116]	; 0x74
    c41c:	e50b3010 	str	r3, [fp, #-16]
    c420:	e51b3010 	ldr	r3, [fp, #-16]
    c424:	e3530000 	cmp	r3, #0
    c428:	1a000003 	bne	c43c <get_task_message+0xb8>
    c42c:	e51b000c 	ldr	r0, [fp, #-12]
    c430:	ebffef6c 	bl	81e8 <set_enable>
    c434:	e3e03002 	mvn	r3, #2
    c438:	ea000042 	b	c548 <get_task_message+0x1c4>
    c43c:	e30f3f38 	movw	r3, #65336	; 0xff38
    c440:	e3403000 	movt	r3, #0
    c444:	e51b2008 	ldr	r2, [fp, #-8]
    c448:	e7933102 	ldr	r3, [r3, r2, lsl #2]
    c44c:	e3a02004 	mov	r2, #4
    c450:	e5832074 	str	r2, [r3, #116]	; 0x74
    c454:	e51b000c 	ldr	r0, [fp, #-12]
    c458:	ebffef62 	bl	81e8 <set_enable>
    c45c:	e30f3f38 	movw	r3, #65336	; 0xff38
    c460:	e3403000 	movt	r3, #0
    c464:	e51b2008 	ldr	r2, [fp, #-8]
    c468:	e7933102 	ldr	r3, [r3, r2, lsl #2]
    c46c:	e2833074 	add	r3, r3, #116	; 0x74
    c470:	e50b3014 	str	r3, [fp, #-20]	; 0xffffffec
    c474:	e51b3014 	ldr	r3, [fp, #-20]	; 0xffffffec
    c478:	e5933014 	ldr	r3, [r3, #20]
    c47c:	e51b2018 	ldr	r2, [fp, #-24]	; 0xffffffe8
    c480:	e1520003 	cmp	r2, r3
    c484:	da000002 	ble	c494 <get_task_message+0x110>
    c488:	e51b3014 	ldr	r3, [fp, #-20]	; 0xffffffec
    c48c:	e5933014 	ldr	r3, [r3, #20]
    c490:	e50b3018 	str	r3, [fp, #-24]	; 0xffffffe8
    c494:	e51b3014 	ldr	r3, [fp, #-20]	; 0xffffffec
    c498:	e5933020 	ldr	r3, [r3, #32]
    c49c:	e1a00003 	mov	r0, r3
    c4a0:	ebfff433 	bl	9574 <rsvsm>
    c4a4:	ebffef45 	bl	81c0 <set_disable>
    c4a8:	e50b000c 	str	r0, [fp, #-12]
    c4ac:	e51b3014 	ldr	r3, [fp, #-20]	; 0xffffffec
    c4b0:	e5932018 	ldr	r2, [r3, #24]
    c4b4:	e51b3014 	ldr	r3, [fp, #-20]	; 0xffffffec
    c4b8:	e5933004 	ldr	r3, [r3, #4]
    c4bc:	e1a03103 	lsl	r3, r3, #2
    c4c0:	e0823003 	add	r3, r2, r3
    c4c4:	e5933000 	ldr	r3, [r3]
    c4c8:	e51b2018 	ldr	r2, [fp, #-24]	; 0xffffffe8
    c4cc:	e1a01003 	mov	r1, r3
    c4d0:	e51b001c 	ldr	r0, [fp, #-28]	; 0xffffffe4
    c4d4:	eb000d58 	bl	fa3c <memcp>
    c4d8:	e51b3014 	ldr	r3, [fp, #-20]	; 0xffffffec
    c4dc:	e5933004 	ldr	r3, [r3, #4]
    c4e0:	e2833001 	add	r3, r3, #1
    c4e4:	e51b2014 	ldr	r2, [fp, #-20]	; 0xffffffec
    c4e8:	e5922010 	ldr	r2, [r2, #16]
    c4ec:	e711f213 	sdiv	r1, r3, r2
    c4f0:	e0020192 	mul	r2, r2, r1
    c4f4:	e0432002 	sub	r2, r3, r2
    c4f8:	e51b3014 	ldr	r3, [fp, #-20]	; 0xffffffec
    c4fc:	e5832004 	str	r2, [r3, #4]
    c500:	e51b3014 	ldr	r3, [fp, #-20]	; 0xffffffec
    c504:	e593300c 	ldr	r3, [r3, #12]
    c508:	e2432001 	sub	r2, r3, #1
    c50c:	e51b3014 	ldr	r3, [fp, #-20]	; 0xffffffec
    c510:	e583200c 	str	r2, [r3, #12]
    c514:	e30f3f38 	movw	r3, #65336	; 0xff38
    c518:	e3403000 	movt	r3, #0
    c51c:	e51b2008 	ldr	r2, [fp, #-8]
    c520:	e7933102 	ldr	r3, [r3, r2, lsl #2]
    c524:	e51b2010 	ldr	r2, [fp, #-16]
    c528:	e5832074 	str	r2, [r3, #116]	; 0x74
    c52c:	e51b000c 	ldr	r0, [fp, #-12]
    c530:	ebffef2c 	bl	81e8 <set_enable>
    c534:	e51b3014 	ldr	r3, [fp, #-20]	; 0xffffffec
    c538:	e593301c 	ldr	r3, [r3, #28]
    c53c:	e1a00003 	mov	r0, r3
    c540:	ebfff472 	bl	9710 <rlsm>
    c544:	e51b3018 	ldr	r3, [fp, #-24]	; 0xffffffe8
    c548:	e1a00003 	mov	r0, r3
    c54c:	e24bd004 	sub	sp, fp, #4
    c550:	e8bd8800 	pop	{fp, pc}

0000c554 <get_cond_task_message>:
    c554:	e92d4800 	push	{fp, lr}
    c558:	e28db004 	add	fp, sp, #4
    c55c:	e24dd018 	sub	sp, sp, #24
    c560:	e50b0018 	str	r0, [fp, #-24]	; 0xffffffe8
    c564:	e50b101c 	str	r1, [fp, #-28]	; 0xffffffe4
    c568:	ebfff007 	bl	858c <gethandler>
    c56c:	e50b0010 	str	r0, [fp, #-16]
    c570:	e51b3010 	ldr	r3, [fp, #-16]
    c574:	e3530000 	cmp	r3, #0
    c578:	da00000a 	ble	c5a8 <get_cond_task_message+0x54>
    c57c:	e51b2010 	ldr	r2, [fp, #-16]
    c580:	e30f3f08 	movw	r3, #65288	; 0xff08
    c584:	e3403000 	movt	r3, #0
    c588:	e5933000 	ldr	r3, [r3]
    c58c:	e1520003 	cmp	r2, r3
    c590:	8a000004 	bhi	c5a8 <get_cond_task_message+0x54>
    c594:	e30f3eb8 	movw	r3, #65208	; 0xfeb8
    c598:	e3403000 	movt	r3, #0
    c59c:	e5933000 	ldr	r3, [r3]
    c5a0:	e3530001 	cmp	r3, #1
    c5a4:	1a000001 	bne	c5b0 <get_cond_task_message+0x5c>
    c5a8:	e3e03000 	mvn	r3, #0
    c5ac:	ea00004f 	b	c6f0 <get_cond_task_message+0x19c>
    c5b0:	e30f3f38 	movw	r3, #65336	; 0xff38
    c5b4:	e3403000 	movt	r3, #0
    c5b8:	e51b2010 	ldr	r2, [fp, #-16]
    c5bc:	e7933102 	ldr	r3, [r3, r2, lsl #2]
    c5c0:	e3530000 	cmp	r3, #0
    c5c4:	1a000001 	bne	c5d0 <get_cond_task_message+0x7c>
    c5c8:	e3e03001 	mvn	r3, #1
    c5cc:	ea000047 	b	c6f0 <get_cond_task_message+0x19c>
    c5d0:	ebffeefa 	bl	81c0 <set_disable>
    c5d4:	e50b0014 	str	r0, [fp, #-20]	; 0xffffffec
    c5d8:	e30f3f38 	movw	r3, #65336	; 0xff38
    c5dc:	e3403000 	movt	r3, #0
    c5e0:	e51b2010 	ldr	r2, [fp, #-16]
    c5e4:	e7933102 	ldr	r3, [r3, r2, lsl #2]
    c5e8:	e5933074 	ldr	r3, [r3, #116]	; 0x74
    c5ec:	e3530000 	cmp	r3, #0
    c5f0:	1a000002 	bne	c600 <get_cond_task_message+0xac>
    c5f4:	e3e03002 	mvn	r3, #2
    c5f8:	e50b3008 	str	r3, [fp, #-8]
    c5fc:	ea000034 	b	c6d4 <get_cond_task_message+0x180>
    c600:	e30f3f38 	movw	r3, #65336	; 0xff38
    c604:	e3403000 	movt	r3, #0
    c608:	e51b2010 	ldr	r2, [fp, #-16]
    c60c:	e7933102 	ldr	r3, [r3, r2, lsl #2]
    c610:	e2833074 	add	r3, r3, #116	; 0x74
    c614:	e50b300c 	str	r3, [fp, #-12]
    c618:	e51b300c 	ldr	r3, [fp, #-12]
    c61c:	e593300c 	ldr	r3, [r3, #12]
    c620:	e3530000 	cmp	r3, #0
    c624:	1a000002 	bne	c634 <get_cond_task_message+0xe0>
    c628:	e3e03003 	mvn	r3, #3
    c62c:	e50b3008 	str	r3, [fp, #-8]
    c630:	ea000027 	b	c6d4 <get_cond_task_message+0x180>
    c634:	e51b300c 	ldr	r3, [fp, #-12]
    c638:	e5933014 	ldr	r3, [r3, #20]
    c63c:	e51b2018 	ldr	r2, [fp, #-24]	; 0xffffffe8
    c640:	e1520003 	cmp	r2, r3
    c644:	da000002 	ble	c654 <get_cond_task_message+0x100>
    c648:	e51b300c 	ldr	r3, [fp, #-12]
    c64c:	e5933014 	ldr	r3, [r3, #20]
    c650:	e50b3018 	str	r3, [fp, #-24]	; 0xffffffe8
    c654:	e51b300c 	ldr	r3, [fp, #-12]
    c658:	e5933020 	ldr	r3, [r3, #32]
    c65c:	e1a00003 	mov	r0, r3
    c660:	ebfff3c3 	bl	9574 <rsvsm>
    c664:	e51b300c 	ldr	r3, [fp, #-12]
    c668:	e5932018 	ldr	r2, [r3, #24]
    c66c:	e51b300c 	ldr	r3, [fp, #-12]
    c670:	e5933004 	ldr	r3, [r3, #4]
    c674:	e1a03103 	lsl	r3, r3, #2
    c678:	e0823003 	add	r3, r2, r3
    c67c:	e5933000 	ldr	r3, [r3]
    c680:	e51b2018 	ldr	r2, [fp, #-24]	; 0xffffffe8
    c684:	e1a01003 	mov	r1, r3
    c688:	e51b001c 	ldr	r0, [fp, #-28]	; 0xffffffe4
    c68c:	eb000cea 	bl	fa3c <memcp>
    c690:	e51b300c 	ldr	r3, [fp, #-12]
    c694:	e5933004 	ldr	r3, [r3, #4]
    c698:	e2833001 	add	r3, r3, #1
    c69c:	e51b200c 	ldr	r2, [fp, #-12]
    c6a0:	e5922010 	ldr	r2, [r2, #16]
    c6a4:	e711f213 	sdiv	r1, r3, r2
    c6a8:	e0020192 	mul	r2, r2, r1
    c6ac:	e0432002 	sub	r2, r3, r2
    c6b0:	e51b300c 	ldr	r3, [fp, #-12]
    c6b4:	e5832004 	str	r2, [r3, #4]
    c6b8:	e51b300c 	ldr	r3, [fp, #-12]
    c6bc:	e593300c 	ldr	r3, [r3, #12]
    c6c0:	e2432001 	sub	r2, r3, #1
    c6c4:	e51b300c 	ldr	r3, [fp, #-12]
    c6c8:	e583200c 	str	r2, [r3, #12]
    c6cc:	e51b3018 	ldr	r3, [fp, #-24]	; 0xffffffe8
    c6d0:	e50b3008 	str	r3, [fp, #-8]
    c6d4:	e51b0014 	ldr	r0, [fp, #-20]	; 0xffffffec
    c6d8:	ebffeec2 	bl	81e8 <set_enable>
    c6dc:	e51b300c 	ldr	r3, [fp, #-12]
    c6e0:	e5933020 	ldr	r3, [r3, #32]
    c6e4:	e1a00003 	mov	r0, r3
    c6e8:	ebfff408 	bl	9710 <rlsm>
    c6ec:	e51b3008 	ldr	r3, [fp, #-8]
    c6f0:	e1a00003 	mov	r0, r3
    c6f4:	e24bd004 	sub	sp, fp, #4
    c6f8:	e8bd8800 	pop	{fp, pc}

0000c6fc <read_task_message>:
    c6fc:	e92d4800 	push	{fp, lr}
    c700:	e28db004 	add	fp, sp, #4
    c704:	e24dd018 	sub	sp, sp, #24
    c708:	e50b0018 	str	r0, [fp, #-24]	; 0xffffffe8
    c70c:	e50b101c 	str	r1, [fp, #-28]	; 0xffffffe4
    c710:	ebffef9d 	bl	858c <gethandler>
    c714:	e50b000c 	str	r0, [fp, #-12]
    c718:	e51b300c 	ldr	r3, [fp, #-12]
    c71c:	e3530000 	cmp	r3, #0
    c720:	da00000a 	ble	c750 <read_task_message+0x54>
    c724:	e51b200c 	ldr	r2, [fp, #-12]
    c728:	e30f3f08 	movw	r3, #65288	; 0xff08
    c72c:	e3403000 	movt	r3, #0
    c730:	e5933000 	ldr	r3, [r3]
    c734:	e1520003 	cmp	r2, r3
    c738:	8a000004 	bhi	c750 <read_task_message+0x54>
    c73c:	e30f3eb8 	movw	r3, #65208	; 0xfeb8
    c740:	e3403000 	movt	r3, #0
    c744:	e5933000 	ldr	r3, [r3]
    c748:	e3530001 	cmp	r3, #1
    c74c:	1a000001 	bne	c758 <read_task_message+0x5c>
    c750:	e3e03000 	mvn	r3, #0
    c754:	ea000038 	b	c83c <read_task_message+0x140>
    c758:	e30f3f38 	movw	r3, #65336	; 0xff38
    c75c:	e3403000 	movt	r3, #0
    c760:	e51b200c 	ldr	r2, [fp, #-12]
    c764:	e7933102 	ldr	r3, [r3, r2, lsl #2]
    c768:	e3530000 	cmp	r3, #0
    c76c:	1a000001 	bne	c778 <read_task_message+0x7c>
    c770:	e3e03001 	mvn	r3, #1
    c774:	ea000030 	b	c83c <read_task_message+0x140>
    c778:	ebffee90 	bl	81c0 <set_disable>
    c77c:	e50b0010 	str	r0, [fp, #-16]
    c780:	e30f3f38 	movw	r3, #65336	; 0xff38
    c784:	e3403000 	movt	r3, #0
    c788:	e51b200c 	ldr	r2, [fp, #-12]
    c78c:	e7933102 	ldr	r3, [r3, r2, lsl #2]
    c790:	e5933074 	ldr	r3, [r3, #116]	; 0x74
    c794:	e3530000 	cmp	r3, #0
    c798:	0a000022 	beq	c828 <read_task_message+0x12c>
    c79c:	e30f3f38 	movw	r3, #65336	; 0xff38
    c7a0:	e3403000 	movt	r3, #0
    c7a4:	e51b200c 	ldr	r2, [fp, #-12]
    c7a8:	e7933102 	ldr	r3, [r3, r2, lsl #2]
    c7ac:	e2833074 	add	r3, r3, #116	; 0x74
    c7b0:	e50b3014 	str	r3, [fp, #-20]	; 0xffffffec
    c7b4:	e51b3014 	ldr	r3, [fp, #-20]	; 0xffffffec
    c7b8:	e5933014 	ldr	r3, [r3, #20]
    c7bc:	e51b2018 	ldr	r2, [fp, #-24]	; 0xffffffe8
    c7c0:	e1520003 	cmp	r2, r3
    c7c4:	da000002 	ble	c7d4 <read_task_message+0xd8>
    c7c8:	e51b3014 	ldr	r3, [fp, #-20]	; 0xffffffec
    c7cc:	e5933014 	ldr	r3, [r3, #20]
    c7d0:	e50b3018 	str	r3, [fp, #-24]	; 0xffffffe8
    c7d4:	e51b3014 	ldr	r3, [fp, #-20]	; 0xffffffec
    c7d8:	e593300c 	ldr	r3, [r3, #12]
    c7dc:	e3530000 	cmp	r3, #0
    c7e0:	0a00000d 	beq	c81c <read_task_message+0x120>
    c7e4:	e51b3014 	ldr	r3, [fp, #-20]	; 0xffffffec
    c7e8:	e5932018 	ldr	r2, [r3, #24]
    c7ec:	e51b3014 	ldr	r3, [fp, #-20]	; 0xffffffec
    c7f0:	e5933004 	ldr	r3, [r3, #4]
    c7f4:	e1a03103 	lsl	r3, r3, #2
    c7f8:	e0823003 	add	r3, r2, r3
    c7fc:	e5933000 	ldr	r3, [r3]
    c800:	e51b2018 	ldr	r2, [fp, #-24]	; 0xffffffe8
    c804:	e1a01003 	mov	r1, r3
    c808:	e51b001c 	ldr	r0, [fp, #-28]	; 0xffffffe4
    c80c:	eb000c8a 	bl	fa3c <memcp>
    c810:	e51b3018 	ldr	r3, [fp, #-24]	; 0xffffffe8
    c814:	e50b3008 	str	r3, [fp, #-8]
    c818:	ea000004 	b	c830 <read_task_message+0x134>
    c81c:	e3e03003 	mvn	r3, #3
    c820:	e50b3008 	str	r3, [fp, #-8]
    c824:	ea000001 	b	c830 <read_task_message+0x134>
    c828:	e3e03002 	mvn	r3, #2
    c82c:	e50b3008 	str	r3, [fp, #-8]
    c830:	e51b0010 	ldr	r0, [fp, #-16]
    c834:	ebffee6b 	bl	81e8 <set_enable>
    c838:	e51b3008 	ldr	r3, [fp, #-8]
    c83c:	e1a00003 	mov	r0, r3
    c840:	e24bd004 	sub	sp, fp, #4
    c844:	e8bd8800 	pop	{fp, pc}

0000c848 <create_mbox>:
    c848:	e92d4800 	push	{fp, lr}
    c84c:	e28db004 	add	fp, sp, #4
    c850:	e24dd018 	sub	sp, sp, #24
    c854:	e50b0018 	str	r0, [fp, #-24]	; 0xffffffe8
    c858:	e50b101c 	str	r1, [fp, #-28]	; 0xffffffe4
    c85c:	e24dd004 	sub	sp, sp, #4
    c860:	e52d0004 	push	{r0}		; (str r0, [sp, #-4]!)
    c864:	e10f0000 	mrs	r0, CPSR
    c868:	e58d0004 	str	r0, [sp, #4]
    c86c:	e49d0004 	pop	{r0}		; (ldr r0, [sp], #4)
    c870:	e3003334 	movw	r3, #820	; 0x334
    c874:	e3403001 	movt	r3, #1
    c878:	e5933000 	ldr	r3, [r3]
    c87c:	e2832001 	add	r2, r3, #1
    c880:	e3003334 	movw	r3, #820	; 0x334
    c884:	e3403001 	movt	r3, #1
    c888:	e5832000 	str	r2, [r3]
    c88c:	e52d0004 	push	{r0}		; (str r0, [sp, #-4]!)
    c890:	e59d0004 	ldr	r0, [sp, #4]
    c894:	e129f000 	msr	CPSR_fc, r0
    c898:	e49d0004 	pop	{r0}		; (ldr r0, [sp], #4)
    c89c:	e28dd004 	add	sp, sp, #4
    c8a0:	e51b3018 	ldr	r3, [fp, #-24]	; 0xffffffe8
    c8a4:	e2833009 	add	r3, r3, #9
    c8a8:	e1a02103 	lsl	r2, r3, #2
    c8ac:	e51b3018 	ldr	r3, [fp, #-24]	; 0xffffffe8
    c8b0:	e51b101c 	ldr	r1, [fp, #-28]	; 0xffffffe4
    c8b4:	e0030391 	mul	r3, r1, r3
    c8b8:	e0823003 	add	r3, r2, r3
    c8bc:	e2833018 	add	r3, r3, #24
    c8c0:	e1a00003 	mov	r0, r3
    c8c4:	eb000bd2 	bl	f814 <malloc>
    c8c8:	e1a03000 	mov	r3, r0
    c8cc:	e50b3010 	str	r3, [fp, #-16]
    c8d0:	e51b3010 	ldr	r3, [fp, #-16]
    c8d4:	e3530000 	cmp	r3, #0
    c8d8:	1a000013 	bne	c92c <create_mbox+0xe4>
    c8dc:	e24dd004 	sub	sp, sp, #4
    c8e0:	e52d0004 	push	{r0}		; (str r0, [sp, #-4]!)
    c8e4:	e10f0000 	mrs	r0, CPSR
    c8e8:	e58d0004 	str	r0, [sp, #4]
    c8ec:	e49d0004 	pop	{r0}		; (ldr r0, [sp], #4)
    c8f0:	e3003334 	movw	r3, #820	; 0x334
    c8f4:	e3403001 	movt	r3, #1
    c8f8:	e5933000 	ldr	r3, [r3]
    c8fc:	e2432001 	sub	r2, r3, #1
    c900:	e3003334 	movw	r3, #820	; 0x334
    c904:	e3403001 	movt	r3, #1
    c908:	e5832000 	str	r2, [r3]
    c90c:	e52d0004 	push	{r0}		; (str r0, [sp, #-4]!)
    c910:	e59d0004 	ldr	r0, [sp, #4]
    c914:	e129f000 	msr	CPSR_fc, r0
    c918:	e49d0004 	pop	{r0}		; (ldr r0, [sp], #4)
    c91c:	e28dd004 	add	sp, sp, #4
    c920:	e3a03000 	mov	r3, #0
    c924:	e50b300c 	str	r3, [fp, #-12]
    c928:	ea00004f 	b	ca6c <create_mbox+0x224>
    c92c:	e24dd004 	sub	sp, sp, #4
    c930:	e52d0004 	push	{r0}		; (str r0, [sp, #-4]!)
    c934:	e10f0000 	mrs	r0, CPSR
    c938:	e58d0004 	str	r0, [sp, #4]
    c93c:	e49d0004 	pop	{r0}		; (ldr r0, [sp], #4)
    c940:	e3003334 	movw	r3, #820	; 0x334
    c944:	e3403001 	movt	r3, #1
    c948:	e5933000 	ldr	r3, [r3]
    c94c:	e2432001 	sub	r2, r3, #1
    c950:	e3003334 	movw	r3, #820	; 0x334
    c954:	e3403001 	movt	r3, #1
    c958:	e5832000 	str	r2, [r3]
    c95c:	e52d0004 	push	{r0}		; (str r0, [sp, #-4]!)
    c960:	e59d0004 	ldr	r0, [sp, #4]
    c964:	e129f000 	msr	CPSR_fc, r0
    c968:	e49d0004 	pop	{r0}		; (ldr r0, [sp], #4)
    c96c:	e28dd004 	add	sp, sp, #4
    c970:	e51b3010 	ldr	r3, [fp, #-16]
    c974:	e50b300c 	str	r3, [fp, #-12]
    c978:	e51b3010 	ldr	r3, [fp, #-16]
    c97c:	e2833024 	add	r3, r3, #36	; 0x24
    c980:	e50b3010 	str	r3, [fp, #-16]
    c984:	e51b300c 	ldr	r3, [fp, #-12]
    c988:	e51b2010 	ldr	r2, [fp, #-16]
    c98c:	e5832018 	str	r2, [r3, #24]
    c990:	e51b3018 	ldr	r3, [fp, #-24]	; 0xffffffe8
    c994:	e1a03103 	lsl	r3, r3, #2
    c998:	e51b2010 	ldr	r2, [fp, #-16]
    c99c:	e0823003 	add	r3, r2, r3
    c9a0:	e50b3010 	str	r3, [fp, #-16]
    c9a4:	e3a03000 	mov	r3, #0
    c9a8:	e50b3008 	str	r3, [fp, #-8]
    c9ac:	ea00000d 	b	c9e8 <create_mbox+0x1a0>
    c9b0:	e51b300c 	ldr	r3, [fp, #-12]
    c9b4:	e5932018 	ldr	r2, [r3, #24]
    c9b8:	e51b3008 	ldr	r3, [fp, #-8]
    c9bc:	e1a03103 	lsl	r3, r3, #2
    c9c0:	e0823003 	add	r3, r2, r3
    c9c4:	e51b2010 	ldr	r2, [fp, #-16]
    c9c8:	e5832000 	str	r2, [r3]
    c9cc:	e51b3008 	ldr	r3, [fp, #-8]
    c9d0:	e2833001 	add	r3, r3, #1
    c9d4:	e50b3008 	str	r3, [fp, #-8]
    c9d8:	e51b2010 	ldr	r2, [fp, #-16]
    c9dc:	e51b301c 	ldr	r3, [fp, #-28]	; 0xffffffe4
    c9e0:	e0823003 	add	r3, r2, r3
    c9e4:	e50b3010 	str	r3, [fp, #-16]
    c9e8:	e51b3008 	ldr	r3, [fp, #-8]
    c9ec:	e51b2018 	ldr	r2, [fp, #-24]	; 0xffffffe8
    c9f0:	e1520003 	cmp	r2, r3
    c9f4:	8affffed 	bhi	c9b0 <create_mbox+0x168>
    c9f8:	e51b300c 	ldr	r3, [fp, #-12]
    c9fc:	e51b2010 	ldr	r2, [fp, #-16]
    ca00:	e583201c 	str	r2, [r3, #28]
    ca04:	e51b3010 	ldr	r3, [fp, #-16]
    ca08:	e283300c 	add	r3, r3, #12
    ca0c:	e50b3010 	str	r3, [fp, #-16]
    ca10:	e51b300c 	ldr	r3, [fp, #-12]
    ca14:	e51b2010 	ldr	r2, [fp, #-16]
    ca18:	e5832020 	str	r2, [r3, #32]
    ca1c:	e51b2018 	ldr	r2, [fp, #-24]	; 0xffffffe8
    ca20:	e51b300c 	ldr	r3, [fp, #-12]
    ca24:	e5832010 	str	r2, [r3, #16]
    ca28:	e51b201c 	ldr	r2, [fp, #-28]	; 0xffffffe4
    ca2c:	e51b300c 	ldr	r3, [fp, #-12]
    ca30:	e5832014 	str	r2, [r3, #20]
    ca34:	e51b300c 	ldr	r3, [fp, #-12]
    ca38:	e593301c 	ldr	r3, [r3, #28]
    ca3c:	e51b2018 	ldr	r2, [fp, #-24]	; 0xffffffe8
    ca40:	e1a01002 	mov	r1, r2
    ca44:	e1a00003 	mov	r0, r3
    ca48:	ebfff2b6 	bl	9528 <dfsm>
    ca4c:	e51b300c 	ldr	r3, [fp, #-12]
    ca50:	e5933020 	ldr	r3, [r3, #32]
    ca54:	e3a01000 	mov	r1, #0
    ca58:	e1a00003 	mov	r0, r3
    ca5c:	ebfff2b1 	bl	9528 <dfsm>
    ca60:	e51b300c 	ldr	r3, [fp, #-12]
    ca64:	e3a02001 	mov	r2, #1
    ca68:	e5832000 	str	r2, [r3]
    ca6c:	e51b300c 	ldr	r3, [fp, #-12]
    ca70:	e1a00003 	mov	r0, r3
    ca74:	e24bd004 	sub	sp, fp, #4
    ca78:	e8bd8800 	pop	{fp, pc}

0000ca7c <delete_mbox>:
    ca7c:	e92d4800 	push	{fp, lr}
    ca80:	e28db004 	add	fp, sp, #4
    ca84:	e24dd010 	sub	sp, sp, #16
    ca88:	e50b0010 	str	r0, [fp, #-16]
    ca8c:	e3a03000 	mov	r3, #0
    ca90:	e50b3008 	str	r3, [fp, #-8]
    ca94:	ebffedc9 	bl	81c0 <set_disable>
    ca98:	e50b000c 	str	r0, [fp, #-12]
    ca9c:	e51b3010 	ldr	r3, [fp, #-16]
    caa0:	e5933000 	ldr	r3, [r3]
    caa4:	e3530000 	cmp	r3, #0
    caa8:	1a000002 	bne	cab8 <delete_mbox+0x3c>
    caac:	e3e03000 	mvn	r3, #0
    cab0:	e50b3008 	str	r3, [fp, #-8]
    cab4:	ea000015 	b	cb10 <delete_mbox+0x94>
    cab8:	e51b3010 	ldr	r3, [fp, #-16]
    cabc:	e5933000 	ldr	r3, [r3]
    cac0:	e3530004 	cmp	r3, #4
    cac4:	1a000002 	bne	cad4 <delete_mbox+0x58>
    cac8:	e3e03001 	mvn	r3, #1
    cacc:	e50b3008 	str	r3, [fp, #-8]
    cad0:	ea00000e 	b	cb10 <delete_mbox+0x94>
    cad4:	e51b3010 	ldr	r3, [fp, #-16]
    cad8:	e593301c 	ldr	r3, [r3, #28]
    cadc:	e5933004 	ldr	r3, [r3, #4]
    cae0:	e3530000 	cmp	r3, #0
    cae4:	1a000004 	bne	cafc <delete_mbox+0x80>
    cae8:	e51b3010 	ldr	r3, [fp, #-16]
    caec:	e5933020 	ldr	r3, [r3, #32]
    caf0:	e5933004 	ldr	r3, [r3, #4]
    caf4:	e3530000 	cmp	r3, #0
    caf8:	0a000002 	beq	cb08 <delete_mbox+0x8c>
    cafc:	e3e03002 	mvn	r3, #2
    cb00:	e50b3008 	str	r3, [fp, #-8]
    cb04:	ea000001 	b	cb10 <delete_mbox+0x94>
    cb08:	e51b0010 	ldr	r0, [fp, #-16]
    cb0c:	eb000b8c 	bl	f944 <free>
    cb10:	e51b000c 	ldr	r0, [fp, #-12]
    cb14:	ebffedb3 	bl	81e8 <set_enable>
    cb18:	e51b3008 	ldr	r3, [fp, #-8]
    cb1c:	e1a00003 	mov	r0, r3
    cb20:	e24bd004 	sub	sp, fp, #4
    cb24:	e8bd8800 	pop	{fp, pc}

0000cb28 <clear_mbox>:
    cb28:	e92d4800 	push	{fp, lr}
    cb2c:	e28db004 	add	fp, sp, #4
    cb30:	e24dd010 	sub	sp, sp, #16
    cb34:	e50b0010 	str	r0, [fp, #-16]
    cb38:	e3a03000 	mov	r3, #0
    cb3c:	e50b3008 	str	r3, [fp, #-8]
    cb40:	ebffed9e 	bl	81c0 <set_disable>
    cb44:	e50b000c 	str	r0, [fp, #-12]
    cb48:	e51b3010 	ldr	r3, [fp, #-16]
    cb4c:	e5933000 	ldr	r3, [r3]
    cb50:	e3530004 	cmp	r3, #4
    cb54:	1a000002 	bne	cb64 <clear_mbox+0x3c>
    cb58:	e3e03000 	mvn	r3, #0
    cb5c:	e50b3008 	str	r3, [fp, #-8]
    cb60:	ea000021 	b	cbec <clear_mbox+0xc4>
    cb64:	e51b3010 	ldr	r3, [fp, #-16]
    cb68:	e5933000 	ldr	r3, [r3]
    cb6c:	e3530000 	cmp	r3, #0
    cb70:	1a000002 	bne	cb80 <clear_mbox+0x58>
    cb74:	e3e03001 	mvn	r3, #1
    cb78:	e50b3008 	str	r3, [fp, #-8]
    cb7c:	ea00001a 	b	cbec <clear_mbox+0xc4>
    cb80:	e51b3010 	ldr	r3, [fp, #-16]
    cb84:	e593301c 	ldr	r3, [r3, #28]
    cb88:	e5933004 	ldr	r3, [r3, #4]
    cb8c:	e3530000 	cmp	r3, #0
    cb90:	1a000004 	bne	cba8 <clear_mbox+0x80>
    cb94:	e51b3010 	ldr	r3, [fp, #-16]
    cb98:	e5933020 	ldr	r3, [r3, #32]
    cb9c:	e5933004 	ldr	r3, [r3, #4]
    cba0:	e3530000 	cmp	r3, #0
    cba4:	0a000002 	beq	cbb4 <clear_mbox+0x8c>
    cba8:	e3e03002 	mvn	r3, #2
    cbac:	e50b3008 	str	r3, [fp, #-8]
    cbb0:	ea00000d 	b	cbec <clear_mbox+0xc4>
    cbb4:	e51b3010 	ldr	r3, [fp, #-16]
    cbb8:	e3a02000 	mov	r2, #0
    cbbc:	e583200c 	str	r2, [r3, #12]
    cbc0:	e51b3010 	ldr	r3, [fp, #-16]
    cbc4:	e593200c 	ldr	r2, [r3, #12]
    cbc8:	e51b3010 	ldr	r3, [fp, #-16]
    cbcc:	e5832008 	str	r2, [r3, #8]
    cbd0:	e51b3010 	ldr	r3, [fp, #-16]
    cbd4:	e5932008 	ldr	r2, [r3, #8]
    cbd8:	e51b3010 	ldr	r3, [fp, #-16]
    cbdc:	e5832004 	str	r2, [r3, #4]
    cbe0:	e51b3010 	ldr	r3, [fp, #-16]
    cbe4:	e3a02001 	mov	r2, #1
    cbe8:	e5832000 	str	r2, [r3]
    cbec:	e51b000c 	ldr	r0, [fp, #-12]
    cbf0:	ebffed7c 	bl	81e8 <set_enable>
    cbf4:	e51b3008 	ldr	r3, [fp, #-8]
    cbf8:	e1a00003 	mov	r0, r3
    cbfc:	e24bd004 	sub	sp, fp, #4
    cc00:	e8bd8800 	pop	{fp, pc}

0000cc04 <mbox_messages>:
    cc04:	e92d4800 	push	{fp, lr}
    cc08:	e28db004 	add	fp, sp, #4
    cc0c:	e24dd010 	sub	sp, sp, #16
    cc10:	e50b0010 	str	r0, [fp, #-16]
    cc14:	ebffed69 	bl	81c0 <set_disable>
    cc18:	e50b000c 	str	r0, [fp, #-12]
    cc1c:	e51b3010 	ldr	r3, [fp, #-16]
    cc20:	e5933000 	ldr	r3, [r3]
    cc24:	e3530000 	cmp	r3, #0
    cc28:	1a000002 	bne	cc38 <mbox_messages+0x34>
    cc2c:	e3e03000 	mvn	r3, #0
    cc30:	e50b3008 	str	r3, [fp, #-8]
    cc34:	ea000002 	b	cc44 <mbox_messages+0x40>
    cc38:	e51b3010 	ldr	r3, [fp, #-16]
    cc3c:	e593300c 	ldr	r3, [r3, #12]
    cc40:	e50b3008 	str	r3, [fp, #-8]
    cc44:	e51b000c 	ldr	r0, [fp, #-12]
    cc48:	ebffed66 	bl	81e8 <set_enable>
    cc4c:	e51b3008 	ldr	r3, [fp, #-8]
    cc50:	e1a00003 	mov	r0, r3
    cc54:	e24bd004 	sub	sp, fp, #4
    cc58:	e8bd8800 	pop	{fp, pc}

0000cc5c <put_message>:
    cc5c:	e92d4800 	push	{fp, lr}
    cc60:	e28db004 	add	fp, sp, #4
    cc64:	e24dd020 	sub	sp, sp, #32
    cc68:	e50b0018 	str	r0, [fp, #-24]	; 0xffffffe8
    cc6c:	e50b101c 	str	r1, [fp, #-28]	; 0xffffffe4
    cc70:	e50b2020 	str	r2, [fp, #-32]	; 0xffffffe0
    cc74:	e50b3024 	str	r3, [fp, #-36]	; 0xffffffdc
    cc78:	ebffed50 	bl	81c0 <set_disable>
    cc7c:	e50b000c 	str	r0, [fp, #-12]
    cc80:	e51b3018 	ldr	r3, [fp, #-24]	; 0xffffffe8
    cc84:	e5933000 	ldr	r3, [r3]
    cc88:	e50b3010 	str	r3, [fp, #-16]
    cc8c:	e51b3010 	ldr	r3, [fp, #-16]
    cc90:	e3530000 	cmp	r3, #0
    cc94:	1a000003 	bne	cca8 <put_message+0x4c>
    cc98:	e51b000c 	ldr	r0, [fp, #-12]
    cc9c:	ebffed51 	bl	81e8 <set_enable>
    cca0:	e3e03000 	mvn	r3, #0
    cca4:	ea000057 	b	ce08 <put_message+0x1ac>
    cca8:	e51b3018 	ldr	r3, [fp, #-24]	; 0xffffffe8
    ccac:	e3a02004 	mov	r2, #4
    ccb0:	e5832000 	str	r2, [r3]
    ccb4:	e51b000c 	ldr	r0, [fp, #-12]
    ccb8:	ebffed4a 	bl	81e8 <set_enable>
    ccbc:	e51b3018 	ldr	r3, [fp, #-24]	; 0xffffffe8
    ccc0:	e5933014 	ldr	r3, [r3, #20]
    ccc4:	e51b201c 	ldr	r2, [fp, #-28]	; 0xffffffe4
    ccc8:	e1520003 	cmp	r2, r3
    cccc:	da000002 	ble	ccdc <put_message+0x80>
    ccd0:	e51b3018 	ldr	r3, [fp, #-24]	; 0xffffffe8
    ccd4:	e5933014 	ldr	r3, [r3, #20]
    ccd8:	e50b301c 	str	r3, [fp, #-28]	; 0xffffffe4
    ccdc:	e51b3018 	ldr	r3, [fp, #-24]	; 0xffffffe8
    cce0:	e593301c 	ldr	r3, [r3, #28]
    cce4:	e1a00003 	mov	r0, r3
    cce8:	ebfff221 	bl	9574 <rsvsm>
    ccec:	ebffed33 	bl	81c0 <set_disable>
    ccf0:	e50b000c 	str	r0, [fp, #-12]
    ccf4:	e51b3024 	ldr	r3, [fp, #-36]	; 0xffffffdc
    ccf8:	e3530000 	cmp	r3, #0
    ccfc:	1a00000c 	bne	cd34 <put_message+0xd8>
    cd00:	e51b3018 	ldr	r3, [fp, #-24]	; 0xffffffe8
    cd04:	e5933008 	ldr	r3, [r3, #8]
    cd08:	e50b3008 	str	r3, [fp, #-8]
    cd0c:	e51b3008 	ldr	r3, [fp, #-8]
    cd10:	e2833001 	add	r3, r3, #1
    cd14:	e51b2018 	ldr	r2, [fp, #-24]	; 0xffffffe8
    cd18:	e5922010 	ldr	r2, [r2, #16]
    cd1c:	e711f213 	sdiv	r1, r3, r2
    cd20:	e0020192 	mul	r2, r2, r1
    cd24:	e0432002 	sub	r2, r3, r2
    cd28:	e51b3018 	ldr	r3, [fp, #-24]	; 0xffffffe8
    cd2c:	e5832008 	str	r2, [r3, #8]
    cd30:	ea000011 	b	cd7c <put_message+0x120>
    cd34:	e51b3018 	ldr	r3, [fp, #-24]	; 0xffffffe8
    cd38:	e5933004 	ldr	r3, [r3, #4]
    cd3c:	e3530000 	cmp	r3, #0
    cd40:	0a000005 	beq	cd5c <put_message+0x100>
    cd44:	e51b3018 	ldr	r3, [fp, #-24]	; 0xffffffe8
    cd48:	e5933004 	ldr	r3, [r3, #4]
    cd4c:	e2432001 	sub	r2, r3, #1
    cd50:	e51b3018 	ldr	r3, [fp, #-24]	; 0xffffffe8
    cd54:	e5832004 	str	r2, [r3, #4]
    cd58:	ea000004 	b	cd70 <put_message+0x114>
    cd5c:	e51b3018 	ldr	r3, [fp, #-24]	; 0xffffffe8
    cd60:	e5933010 	ldr	r3, [r3, #16]
    cd64:	e2432001 	sub	r2, r3, #1
    cd68:	e51b3018 	ldr	r3, [fp, #-24]	; 0xffffffe8
    cd6c:	e5832004 	str	r2, [r3, #4]
    cd70:	e51b3018 	ldr	r3, [fp, #-24]	; 0xffffffe8
    cd74:	e5933004 	ldr	r3, [r3, #4]
    cd78:	e50b3008 	str	r3, [fp, #-8]
    cd7c:	e51b3018 	ldr	r3, [fp, #-24]	; 0xffffffe8
    cd80:	e5932018 	ldr	r2, [r3, #24]
    cd84:	e51b3008 	ldr	r3, [fp, #-8]
    cd88:	e1a03103 	lsl	r3, r3, #2
    cd8c:	e0823003 	add	r3, r2, r3
    cd90:	e5933000 	ldr	r3, [r3]
    cd94:	e51b201c 	ldr	r2, [fp, #-28]	; 0xffffffe4
    cd98:	e51b1020 	ldr	r1, [fp, #-32]	; 0xffffffe0
    cd9c:	e1a00003 	mov	r0, r3
    cda0:	eb000b25 	bl	fa3c <memcp>
    cda4:	e51b3018 	ldr	r3, [fp, #-24]	; 0xffffffe8
    cda8:	e593300c 	ldr	r3, [r3, #12]
    cdac:	e2832001 	add	r2, r3, #1
    cdb0:	e51b3018 	ldr	r3, [fp, #-24]	; 0xffffffe8
    cdb4:	e583200c 	str	r2, [r3, #12]
    cdb8:	e51b3018 	ldr	r3, [fp, #-24]	; 0xffffffe8
    cdbc:	e593301c 	ldr	r3, [r3, #28]
    cdc0:	e5933004 	ldr	r3, [r3, #4]
    cdc4:	e3530000 	cmp	r3, #0
    cdc8:	1a000007 	bne	cdec <put_message+0x190>
    cdcc:	e51b3018 	ldr	r3, [fp, #-24]	; 0xffffffe8
    cdd0:	e5933020 	ldr	r3, [r3, #32]
    cdd4:	e5933004 	ldr	r3, [r3, #4]
    cdd8:	e3530000 	cmp	r3, #0
    cddc:	1a000002 	bne	cdec <put_message+0x190>
    cde0:	e51b3018 	ldr	r3, [fp, #-24]	; 0xffffffe8
    cde4:	e51b2010 	ldr	r2, [fp, #-16]
    cde8:	e5832000 	str	r2, [r3]
    cdec:	e51b000c 	ldr	r0, [fp, #-12]
    cdf0:	ebffecfc 	bl	81e8 <set_enable>
    cdf4:	e51b3018 	ldr	r3, [fp, #-24]	; 0xffffffe8
    cdf8:	e5933020 	ldr	r3, [r3, #32]
    cdfc:	e1a00003 	mov	r0, r3
    ce00:	ebfff242 	bl	9710 <rlsm>
    ce04:	e51b301c 	ldr	r3, [fp, #-28]	; 0xffffffe4
    ce08:	e1a00003 	mov	r0, r3
    ce0c:	e24bd004 	sub	sp, fp, #4
    ce10:	e8bd8800 	pop	{fp, pc}

0000ce14 <put_cond_message>:
    ce14:	e92d4800 	push	{fp, lr}
    ce18:	e28db004 	add	fp, sp, #4
    ce1c:	e24dd020 	sub	sp, sp, #32
    ce20:	e50b0018 	str	r0, [fp, #-24]	; 0xffffffe8
    ce24:	e50b101c 	str	r1, [fp, #-28]	; 0xffffffe4
    ce28:	e50b2020 	str	r2, [fp, #-32]	; 0xffffffe0
    ce2c:	e50b3024 	str	r3, [fp, #-36]	; 0xffffffdc
    ce30:	ebffece2 	bl	81c0 <set_disable>
    ce34:	e50b0010 	str	r0, [fp, #-16]
    ce38:	e51b3018 	ldr	r3, [fp, #-24]	; 0xffffffe8
    ce3c:	e5933000 	ldr	r3, [r3]
    ce40:	e3530000 	cmp	r3, #0
    ce44:	1a000002 	bne	ce54 <put_cond_message+0x40>
    ce48:	e3e03000 	mvn	r3, #0
    ce4c:	e50b3008 	str	r3, [fp, #-8]
    ce50:	ea000047 	b	cf74 <put_cond_message+0x160>
    ce54:	e51b3018 	ldr	r3, [fp, #-24]	; 0xffffffe8
    ce58:	e593200c 	ldr	r2, [r3, #12]
    ce5c:	e51b3018 	ldr	r3, [fp, #-24]	; 0xffffffe8
    ce60:	e5933010 	ldr	r3, [r3, #16]
    ce64:	e1520003 	cmp	r2, r3
    ce68:	1a000002 	bne	ce78 <put_cond_message+0x64>
    ce6c:	e3e03001 	mvn	r3, #1
    ce70:	e50b3008 	str	r3, [fp, #-8]
    ce74:	ea00003e 	b	cf74 <put_cond_message+0x160>
    ce78:	e51b3018 	ldr	r3, [fp, #-24]	; 0xffffffe8
    ce7c:	e5933014 	ldr	r3, [r3, #20]
    ce80:	e51b201c 	ldr	r2, [fp, #-28]	; 0xffffffe4
    ce84:	e1520003 	cmp	r2, r3
    ce88:	da000002 	ble	ce98 <put_cond_message+0x84>
    ce8c:	e51b3018 	ldr	r3, [fp, #-24]	; 0xffffffe8
    ce90:	e5933014 	ldr	r3, [r3, #20]
    ce94:	e50b301c 	str	r3, [fp, #-28]	; 0xffffffe4
    ce98:	e51b3018 	ldr	r3, [fp, #-24]	; 0xffffffe8
    ce9c:	e593301c 	ldr	r3, [r3, #28]
    cea0:	e1a00003 	mov	r0, r3
    cea4:	ebfff1b2 	bl	9574 <rsvsm>
    cea8:	e51b3024 	ldr	r3, [fp, #-36]	; 0xffffffdc
    ceac:	e3530000 	cmp	r3, #0
    ceb0:	1a00000c 	bne	cee8 <put_cond_message+0xd4>
    ceb4:	e51b3018 	ldr	r3, [fp, #-24]	; 0xffffffe8
    ceb8:	e5933008 	ldr	r3, [r3, #8]
    cebc:	e50b300c 	str	r3, [fp, #-12]
    cec0:	e51b300c 	ldr	r3, [fp, #-12]
    cec4:	e2833001 	add	r3, r3, #1
    cec8:	e51b2018 	ldr	r2, [fp, #-24]	; 0xffffffe8
    cecc:	e5922010 	ldr	r2, [r2, #16]
    ced0:	e711f213 	sdiv	r1, r3, r2
    ced4:	e0020192 	mul	r2, r2, r1
    ced8:	e0432002 	sub	r2, r3, r2
    cedc:	e51b3018 	ldr	r3, [fp, #-24]	; 0xffffffe8
    cee0:	e5832008 	str	r2, [r3, #8]
    cee4:	ea000011 	b	cf30 <put_cond_message+0x11c>
    cee8:	e51b3018 	ldr	r3, [fp, #-24]	; 0xffffffe8
    ceec:	e5933004 	ldr	r3, [r3, #4]
    cef0:	e3530000 	cmp	r3, #0
    cef4:	0a000005 	beq	cf10 <put_cond_message+0xfc>
    cef8:	e51b3018 	ldr	r3, [fp, #-24]	; 0xffffffe8
    cefc:	e5933004 	ldr	r3, [r3, #4]
    cf00:	e2432001 	sub	r2, r3, #1
    cf04:	e51b3018 	ldr	r3, [fp, #-24]	; 0xffffffe8
    cf08:	e5832004 	str	r2, [r3, #4]
    cf0c:	ea000004 	b	cf24 <put_cond_message+0x110>
    cf10:	e51b3018 	ldr	r3, [fp, #-24]	; 0xffffffe8
    cf14:	e5933010 	ldr	r3, [r3, #16]
    cf18:	e2432001 	sub	r2, r3, #1
    cf1c:	e51b3018 	ldr	r3, [fp, #-24]	; 0xffffffe8
    cf20:	e5832004 	str	r2, [r3, #4]
    cf24:	e51b3018 	ldr	r3, [fp, #-24]	; 0xffffffe8
    cf28:	e5933004 	ldr	r3, [r3, #4]
    cf2c:	e50b300c 	str	r3, [fp, #-12]
    cf30:	e51b3018 	ldr	r3, [fp, #-24]	; 0xffffffe8
    cf34:	e5932018 	ldr	r2, [r3, #24]
    cf38:	e51b300c 	ldr	r3, [fp, #-12]
    cf3c:	e1a03103 	lsl	r3, r3, #2
    cf40:	e0823003 	add	r3, r2, r3
    cf44:	e5933000 	ldr	r3, [r3]
    cf48:	e51b201c 	ldr	r2, [fp, #-28]	; 0xffffffe4
    cf4c:	e51b1020 	ldr	r1, [fp, #-32]	; 0xffffffe0
    cf50:	e1a00003 	mov	r0, r3
    cf54:	eb000ab8 	bl	fa3c <memcp>
    cf58:	e51b3018 	ldr	r3, [fp, #-24]	; 0xffffffe8
    cf5c:	e593300c 	ldr	r3, [r3, #12]
    cf60:	e2832001 	add	r2, r3, #1
    cf64:	e51b3018 	ldr	r3, [fp, #-24]	; 0xffffffe8
    cf68:	e583200c 	str	r2, [r3, #12]
    cf6c:	e51b301c 	ldr	r3, [fp, #-28]	; 0xffffffe4
    cf70:	e50b3008 	str	r3, [fp, #-8]
    cf74:	e51b0010 	ldr	r0, [fp, #-16]
    cf78:	ebffec9a 	bl	81e8 <set_enable>
    cf7c:	e51b3018 	ldr	r3, [fp, #-24]	; 0xffffffe8
    cf80:	e5933020 	ldr	r3, [r3, #32]
    cf84:	e1a00003 	mov	r0, r3
    cf88:	ebfff1e0 	bl	9710 <rlsm>
    cf8c:	e51b3008 	ldr	r3, [fp, #-8]
    cf90:	e1a00003 	mov	r0, r3
    cf94:	e24bd004 	sub	sp, fp, #4
    cf98:	e8bd8800 	pop	{fp, pc}

0000cf9c <get_message>:
    cf9c:	e92d4800 	push	{fp, lr}
    cfa0:	e28db004 	add	fp, sp, #4
    cfa4:	e24dd018 	sub	sp, sp, #24
    cfa8:	e50b0010 	str	r0, [fp, #-16]
    cfac:	e50b1014 	str	r1, [fp, #-20]	; 0xffffffec
    cfb0:	e50b2018 	str	r2, [fp, #-24]	; 0xffffffe8
    cfb4:	ebffec81 	bl	81c0 <set_disable>
    cfb8:	e50b0008 	str	r0, [fp, #-8]
    cfbc:	e51b3010 	ldr	r3, [fp, #-16]
    cfc0:	e5933000 	ldr	r3, [r3]
    cfc4:	e50b300c 	str	r3, [fp, #-12]
    cfc8:	e51b300c 	ldr	r3, [fp, #-12]
    cfcc:	e3530000 	cmp	r3, #0
    cfd0:	1a000003 	bne	cfe4 <get_message+0x48>
    cfd4:	e51b0008 	ldr	r0, [fp, #-8]
    cfd8:	ebffec82 	bl	81e8 <set_enable>
    cfdc:	e3e03000 	mvn	r3, #0
    cfe0:	ea000040 	b	d0e8 <get_message+0x14c>
    cfe4:	e51b3010 	ldr	r3, [fp, #-16]
    cfe8:	e3a02004 	mov	r2, #4
    cfec:	e5832000 	str	r2, [r3]
    cff0:	e51b0008 	ldr	r0, [fp, #-8]
    cff4:	ebffec7b 	bl	81e8 <set_enable>
    cff8:	e51b3010 	ldr	r3, [fp, #-16]
    cffc:	e5933014 	ldr	r3, [r3, #20]
    d000:	e51b2014 	ldr	r2, [fp, #-20]	; 0xffffffec
    d004:	e1520003 	cmp	r2, r3
    d008:	da000002 	ble	d018 <get_message+0x7c>
    d00c:	e51b3010 	ldr	r3, [fp, #-16]
    d010:	e5933014 	ldr	r3, [r3, #20]
    d014:	e50b3014 	str	r3, [fp, #-20]	; 0xffffffec
    d018:	e51b3010 	ldr	r3, [fp, #-16]
    d01c:	e5933020 	ldr	r3, [r3, #32]
    d020:	e1a00003 	mov	r0, r3
    d024:	ebfff152 	bl	9574 <rsvsm>
    d028:	ebffec64 	bl	81c0 <set_disable>
    d02c:	e50b0008 	str	r0, [fp, #-8]
    d030:	e51b3010 	ldr	r3, [fp, #-16]
    d034:	e5932018 	ldr	r2, [r3, #24]
    d038:	e51b3010 	ldr	r3, [fp, #-16]
    d03c:	e5933004 	ldr	r3, [r3, #4]
    d040:	e1a03103 	lsl	r3, r3, #2
    d044:	e0823003 	add	r3, r2, r3
    d048:	e5933000 	ldr	r3, [r3]
    d04c:	e51b2014 	ldr	r2, [fp, #-20]	; 0xffffffec
    d050:	e1a01003 	mov	r1, r3
    d054:	e51b0018 	ldr	r0, [fp, #-24]	; 0xffffffe8
    d058:	eb000a77 	bl	fa3c <memcp>
    d05c:	e51b3010 	ldr	r3, [fp, #-16]
    d060:	e5933004 	ldr	r3, [r3, #4]
    d064:	e2833001 	add	r3, r3, #1
    d068:	e51b2010 	ldr	r2, [fp, #-16]
    d06c:	e5922010 	ldr	r2, [r2, #16]
    d070:	e711f213 	sdiv	r1, r3, r2
    d074:	e0020192 	mul	r2, r2, r1
    d078:	e0432002 	sub	r2, r3, r2
    d07c:	e51b3010 	ldr	r3, [fp, #-16]
    d080:	e5832004 	str	r2, [r3, #4]
    d084:	e51b3010 	ldr	r3, [fp, #-16]
    d088:	e593300c 	ldr	r3, [r3, #12]
    d08c:	e2432001 	sub	r2, r3, #1
    d090:	e51b3010 	ldr	r3, [fp, #-16]
    d094:	e583200c 	str	r2, [r3, #12]
    d098:	e51b3010 	ldr	r3, [fp, #-16]
    d09c:	e593301c 	ldr	r3, [r3, #28]
    d0a0:	e5933004 	ldr	r3, [r3, #4]
    d0a4:	e3530000 	cmp	r3, #0
    d0a8:	1a000007 	bne	d0cc <get_message+0x130>
    d0ac:	e51b3010 	ldr	r3, [fp, #-16]
    d0b0:	e5933020 	ldr	r3, [r3, #32]
    d0b4:	e5933004 	ldr	r3, [r3, #4]
    d0b8:	e3530000 	cmp	r3, #0
    d0bc:	1a000002 	bne	d0cc <get_message+0x130>
    d0c0:	e51b3010 	ldr	r3, [fp, #-16]
    d0c4:	e51b200c 	ldr	r2, [fp, #-12]
    d0c8:	e5832000 	str	r2, [r3]
    d0cc:	e51b0008 	ldr	r0, [fp, #-8]
    d0d0:	ebffec44 	bl	81e8 <set_enable>
    d0d4:	e51b3010 	ldr	r3, [fp, #-16]
    d0d8:	e593301c 	ldr	r3, [r3, #28]
    d0dc:	e1a00003 	mov	r0, r3
    d0e0:	ebfff18a 	bl	9710 <rlsm>
    d0e4:	e51b3014 	ldr	r3, [fp, #-20]	; 0xffffffec
    d0e8:	e1a00003 	mov	r0, r3
    d0ec:	e24bd004 	sub	sp, fp, #4
    d0f0:	e8bd8800 	pop	{fp, pc}

0000d0f4 <get_cond_message>:
    d0f4:	e92d4800 	push	{fp, lr}
    d0f8:	e28db004 	add	fp, sp, #4
    d0fc:	e24dd018 	sub	sp, sp, #24
    d100:	e50b0010 	str	r0, [fp, #-16]
    d104:	e50b1014 	str	r1, [fp, #-20]	; 0xffffffec
    d108:	e50b2018 	str	r2, [fp, #-24]	; 0xffffffe8
    d10c:	ebffec2b 	bl	81c0 <set_disable>
    d110:	e50b000c 	str	r0, [fp, #-12]
    d114:	e51b3010 	ldr	r3, [fp, #-16]
    d118:	e5933000 	ldr	r3, [r3]
    d11c:	e3530000 	cmp	r3, #0
    d120:	1a000002 	bne	d130 <get_cond_message+0x3c>
    d124:	e3e03000 	mvn	r3, #0
    d128:	e50b3008 	str	r3, [fp, #-8]
    d12c:	ea00002e 	b	d1ec <get_cond_message+0xf8>
    d130:	e51b3010 	ldr	r3, [fp, #-16]
    d134:	e593300c 	ldr	r3, [r3, #12]
    d138:	e3530000 	cmp	r3, #0
    d13c:	1a000002 	bne	d14c <get_cond_message+0x58>
    d140:	e3e03001 	mvn	r3, #1
    d144:	e50b3008 	str	r3, [fp, #-8]
    d148:	ea000027 	b	d1ec <get_cond_message+0xf8>
    d14c:	e51b3010 	ldr	r3, [fp, #-16]
    d150:	e5933014 	ldr	r3, [r3, #20]
    d154:	e51b2014 	ldr	r2, [fp, #-20]	; 0xffffffec
    d158:	e1520003 	cmp	r2, r3
    d15c:	da000002 	ble	d16c <get_cond_message+0x78>
    d160:	e51b3010 	ldr	r3, [fp, #-16]
    d164:	e5933014 	ldr	r3, [r3, #20]
    d168:	e50b3014 	str	r3, [fp, #-20]	; 0xffffffec
    d16c:	e51b3010 	ldr	r3, [fp, #-16]
    d170:	e5933020 	ldr	r3, [r3, #32]
    d174:	e1a00003 	mov	r0, r3
    d178:	ebfff0fd 	bl	9574 <rsvsm>
    d17c:	e51b3010 	ldr	r3, [fp, #-16]
    d180:	e5932018 	ldr	r2, [r3, #24]
    d184:	e51b3010 	ldr	r3, [fp, #-16]
    d188:	e5933004 	ldr	r3, [r3, #4]
    d18c:	e1a03103 	lsl	r3, r3, #2
    d190:	e0823003 	add	r3, r2, r3
    d194:	e5933000 	ldr	r3, [r3]
    d198:	e51b2014 	ldr	r2, [fp, #-20]	; 0xffffffec
    d19c:	e1a01003 	mov	r1, r3
    d1a0:	e51b0018 	ldr	r0, [fp, #-24]	; 0xffffffe8
    d1a4:	eb000a24 	bl	fa3c <memcp>
    d1a8:	e51b3010 	ldr	r3, [fp, #-16]
    d1ac:	e5933004 	ldr	r3, [r3, #4]
    d1b0:	e2833001 	add	r3, r3, #1
    d1b4:	e51b2010 	ldr	r2, [fp, #-16]
    d1b8:	e5922010 	ldr	r2, [r2, #16]
    d1bc:	e711f213 	sdiv	r1, r3, r2
    d1c0:	e0020192 	mul	r2, r2, r1
    d1c4:	e0432002 	sub	r2, r3, r2
    d1c8:	e51b3010 	ldr	r3, [fp, #-16]
    d1cc:	e5832004 	str	r2, [r3, #4]
    d1d0:	e51b3010 	ldr	r3, [fp, #-16]
    d1d4:	e593300c 	ldr	r3, [r3, #12]
    d1d8:	e2432001 	sub	r2, r3, #1
    d1dc:	e51b3010 	ldr	r3, [fp, #-16]
    d1e0:	e583200c 	str	r2, [r3, #12]
    d1e4:	e51b3014 	ldr	r3, [fp, #-20]	; 0xffffffec
    d1e8:	e50b3008 	str	r3, [fp, #-8]
    d1ec:	e51b000c 	ldr	r0, [fp, #-12]
    d1f0:	ebffebfc 	bl	81e8 <set_enable>
    d1f4:	e51b3010 	ldr	r3, [fp, #-16]
    d1f8:	e5933020 	ldr	r3, [r3, #32]
    d1fc:	e1a00003 	mov	r0, r3
    d200:	ebfff142 	bl	9710 <rlsm>
    d204:	e51b3008 	ldr	r3, [fp, #-8]
    d208:	e1a00003 	mov	r0, r3
    d20c:	e24bd004 	sub	sp, fp, #4
    d210:	e8bd8800 	pop	{fp, pc}

0000d214 <read_message>:
    d214:	e92d4800 	push	{fp, lr}
    d218:	e28db004 	add	fp, sp, #4
    d21c:	e24dd018 	sub	sp, sp, #24
    d220:	e50b0010 	str	r0, [fp, #-16]
    d224:	e50b1014 	str	r1, [fp, #-20]	; 0xffffffec
    d228:	e50b2018 	str	r2, [fp, #-24]	; 0xffffffe8
    d22c:	ebffebe3 	bl	81c0 <set_disable>
    d230:	e50b000c 	str	r0, [fp, #-12]
    d234:	e51b3010 	ldr	r3, [fp, #-16]
    d238:	e5933000 	ldr	r3, [r3]
    d23c:	e3530000 	cmp	r3, #0
    d240:	0a00001c 	beq	d2b8 <read_message+0xa4>
    d244:	e51b3010 	ldr	r3, [fp, #-16]
    d248:	e5933014 	ldr	r3, [r3, #20]
    d24c:	e51b2014 	ldr	r2, [fp, #-20]	; 0xffffffec
    d250:	e1520003 	cmp	r2, r3
    d254:	da000002 	ble	d264 <read_message+0x50>
    d258:	e51b3010 	ldr	r3, [fp, #-16]
    d25c:	e5933014 	ldr	r3, [r3, #20]
    d260:	e50b3014 	str	r3, [fp, #-20]	; 0xffffffec
    d264:	e51b3010 	ldr	r3, [fp, #-16]
    d268:	e593300c 	ldr	r3, [r3, #12]
    d26c:	e3530000 	cmp	r3, #0
    d270:	0a00000d 	beq	d2ac <read_message+0x98>
    d274:	e51b3010 	ldr	r3, [fp, #-16]
    d278:	e5932018 	ldr	r2, [r3, #24]
    d27c:	e51b3010 	ldr	r3, [fp, #-16]
    d280:	e5933004 	ldr	r3, [r3, #4]
    d284:	e1a03103 	lsl	r3, r3, #2
    d288:	e0823003 	add	r3, r2, r3
    d28c:	e5933000 	ldr	r3, [r3]
    d290:	e51b2014 	ldr	r2, [fp, #-20]	; 0xffffffec
    d294:	e1a01003 	mov	r1, r3
    d298:	e51b0018 	ldr	r0, [fp, #-24]	; 0xffffffe8
    d29c:	eb0009e6 	bl	fa3c <memcp>
    d2a0:	e51b3014 	ldr	r3, [fp, #-20]	; 0xffffffec
    d2a4:	e50b3008 	str	r3, [fp, #-8]
    d2a8:	ea000004 	b	d2c0 <read_message+0xac>
    d2ac:	e3e03001 	mvn	r3, #1
    d2b0:	e50b3008 	str	r3, [fp, #-8]
    d2b4:	ea000001 	b	d2c0 <read_message+0xac>
    d2b8:	e3e03000 	mvn	r3, #0
    d2bc:	e50b3008 	str	r3, [fp, #-8]
    d2c0:	e51b000c 	ldr	r0, [fp, #-12]
    d2c4:	ebffebc7 	bl	81e8 <set_enable>
    d2c8:	e51b3008 	ldr	r3, [fp, #-8]
    d2cc:	e1a00003 	mov	r0, r3
    d2d0:	e24bd004 	sub	sp, fp, #4
    d2d4:	e8bd8800 	pop	{fp, pc}

0000d2d8 <dfmtx>:
    d2d8:	e52db004 	push	{fp}		; (str fp, [sp, #-4]!)
    d2dc:	e28db000 	add	fp, sp, #0
    d2e0:	e24dd00c 	sub	sp, sp, #12
    d2e4:	e50b0008 	str	r0, [fp, #-8]
    d2e8:	e51b3008 	ldr	r3, [fp, #-8]
    d2ec:	e3a02001 	mov	r2, #1
    d2f0:	e5832000 	str	r2, [r3]
    d2f4:	e51b3008 	ldr	r3, [fp, #-8]
    d2f8:	e3a02000 	mov	r2, #0
    d2fc:	e5832004 	str	r2, [r3, #4]
    d300:	e51b3008 	ldr	r3, [fp, #-8]
    d304:	e3a02000 	mov	r2, #0
    d308:	e5832010 	str	r2, [r3, #16]
    d30c:	e51b3008 	ldr	r3, [fp, #-8]
    d310:	e5932010 	ldr	r2, [r3, #16]
    d314:	e51b3008 	ldr	r3, [fp, #-8]
    d318:	e583200c 	str	r2, [r3, #12]
    d31c:	e51b3008 	ldr	r3, [fp, #-8]
    d320:	e593200c 	ldr	r2, [r3, #12]
    d324:	e51b3008 	ldr	r3, [fp, #-8]
    d328:	e5832008 	str	r2, [r3, #8]
    d32c:	e320f000 	nop	{0}
    d330:	e28bd000 	add	sp, fp, #0
    d334:	e49db004 	pop	{fp}		; (ldr fp, [sp], #4)
    d338:	e12fff1e 	bx	lr

0000d33c <rsvmtx>:
    d33c:	e92d4800 	push	{fp, lr}
    d340:	e28db004 	add	fp, sp, #4
    d344:	e24dd018 	sub	sp, sp, #24
    d348:	e50b0018 	str	r0, [fp, #-24]	; 0xffffffe8
    d34c:	e3a03000 	mov	r3, #0
    d350:	e50b3008 	str	r3, [fp, #-8]
    d354:	ebffeb99 	bl	81c0 <set_disable>
    d358:	e50b000c 	str	r0, [fp, #-12]
    d35c:	e51b3018 	ldr	r3, [fp, #-24]	; 0xffffffe8
    d360:	e5932008 	ldr	r2, [r3, #8]
    d364:	e30f3ef4 	movw	r3, #65268	; 0xfef4
    d368:	e3403000 	movt	r3, #0
    d36c:	e5933000 	ldr	r3, [r3]
    d370:	e1520003 	cmp	r2, r3
    d374:	0a000004 	beq	d38c <rsvmtx+0x50>
    d378:	e51b3018 	ldr	r3, [fp, #-24]	; 0xffffffe8
    d37c:	e5933000 	ldr	r3, [r3]
    d380:	e2432001 	sub	r2, r3, #1
    d384:	e51b3018 	ldr	r3, [fp, #-24]	; 0xffffffe8
    d388:	e5832000 	str	r2, [r3]
    d38c:	e51b3018 	ldr	r3, [fp, #-24]	; 0xffffffe8
    d390:	e5933000 	ldr	r3, [r3]
    d394:	e3530000 	cmp	r3, #0
    d398:	aa000036 	bge	d478 <rsvmtx+0x13c>
    d39c:	e30f3ef4 	movw	r3, #65268	; 0xfef4
    d3a0:	e3403000 	movt	r3, #0
    d3a4:	e5933000 	ldr	r3, [r3]
    d3a8:	e50b3010 	str	r3, [fp, #-16]
    d3ac:	e51b3010 	ldr	r3, [fp, #-16]
    d3b0:	e3a02000 	mov	r2, #0
    d3b4:	e5832070 	str	r2, [r3, #112]	; 0x70
    d3b8:	e51b3018 	ldr	r3, [fp, #-24]	; 0xffffffe8
    d3bc:	e593300c 	ldr	r3, [r3, #12]
    d3c0:	e3530000 	cmp	r3, #0
    d3c4:	1a000007 	bne	d3e8 <rsvmtx+0xac>
    d3c8:	e51b3018 	ldr	r3, [fp, #-24]	; 0xffffffe8
    d3cc:	e51b2010 	ldr	r2, [fp, #-16]
    d3d0:	e5832010 	str	r2, [r3, #16]
    d3d4:	e51b3018 	ldr	r3, [fp, #-24]	; 0xffffffe8
    d3d8:	e5932010 	ldr	r2, [r3, #16]
    d3dc:	e51b3018 	ldr	r3, [fp, #-24]	; 0xffffffe8
    d3e0:	e583200c 	str	r2, [r3, #12]
    d3e4:	ea000006 	b	d404 <rsvmtx+0xc8>
    d3e8:	e51b3018 	ldr	r3, [fp, #-24]	; 0xffffffe8
    d3ec:	e5933010 	ldr	r3, [r3, #16]
    d3f0:	e51b2010 	ldr	r2, [fp, #-16]
    d3f4:	e5832070 	str	r2, [r3, #112]	; 0x70
    d3f8:	e51b3018 	ldr	r3, [fp, #-24]	; 0xffffffe8
    d3fc:	e51b2010 	ldr	r2, [fp, #-16]
    d400:	e5832010 	str	r2, [r3, #16]
    d404:	e30f3ef4 	movw	r3, #65268	; 0xfef4
    d408:	e3403000 	movt	r3, #0
    d40c:	e5933000 	ldr	r3, [r3]
    d410:	e3a02000 	mov	r2, #0
    d414:	e1c324ba 	strh	r2, [r3, #74]	; 0x4a
    d418:	e30f3ef4 	movw	r3, #65268	; 0xfef4
    d41c:	e3403000 	movt	r3, #0
    d420:	e5933000 	ldr	r3, [r3]
    d424:	e3a02003 	mov	r2, #3
    d428:	e1c324b8 	strh	r2, [r3, #72]	; 0x48
    d42c:	e51b000c 	ldr	r0, [fp, #-12]
    d430:	ebffeb6c 	bl	81e8 <set_enable>
    d434:	ea000006 	b	d454 <rsvmtx+0x118>
    d438:	e30f3f04 	movw	r3, #65284	; 0xff04
    d43c:	e3403000 	movt	r3, #0
    d440:	e5933000 	ldr	r3, [r3]
    d444:	e2033002 	and	r3, r3, #2
    d448:	e3530000 	cmp	r3, #0
    d44c:	0a000000 	beq	d454 <rsvmtx+0x118>
    d450:	ef000060 	svc	0x00000060
    d454:	e30f3ef4 	movw	r3, #65268	; 0xfef4
    d458:	e3403000 	movt	r3, #0
    d45c:	e5933000 	ldr	r3, [r3]
    d460:	e1d334b8 	ldrh	r3, [r3, #72]	; 0x48
    d464:	e3530003 	cmp	r3, #3
    d468:	0afffff2 	beq	d438 <rsvmtx+0xfc>
    d46c:	ebffeb53 	bl	81c0 <set_disable>
    d470:	e3a03001 	mov	r3, #1
    d474:	e50b3008 	str	r3, [fp, #-8]
    d478:	e51b3018 	ldr	r3, [fp, #-24]	; 0xffffffe8
    d47c:	e5933004 	ldr	r3, [r3, #4]
    d480:	e2832001 	add	r2, r3, #1
    d484:	e51b3018 	ldr	r3, [fp, #-24]	; 0xffffffe8
    d488:	e5832004 	str	r2, [r3, #4]
    d48c:	e30f3ef4 	movw	r3, #65268	; 0xfef4
    d490:	e3403000 	movt	r3, #0
    d494:	e5932000 	ldr	r2, [r3]
    d498:	e51b3018 	ldr	r3, [fp, #-24]	; 0xffffffe8
    d49c:	e5832008 	str	r2, [r3, #8]
    d4a0:	e51b000c 	ldr	r0, [fp, #-12]
    d4a4:	ebffeb4f 	bl	81e8 <set_enable>
    d4a8:	e51b3008 	ldr	r3, [fp, #-8]
    d4ac:	e1a00003 	mov	r0, r3
    d4b0:	e24bd004 	sub	sp, fp, #4
    d4b4:	e8bd8800 	pop	{fp, pc}

0000d4b8 <rlsmtx>:
    d4b8:	e92d4800 	push	{fp, lr}
    d4bc:	e28db004 	add	fp, sp, #4
    d4c0:	e24dd018 	sub	sp, sp, #24
    d4c4:	e50b0018 	str	r0, [fp, #-24]	; 0xffffffe8
    d4c8:	e3a03000 	mov	r3, #0
    d4cc:	e50b3008 	str	r3, [fp, #-8]
    d4d0:	ebffeb3a 	bl	81c0 <set_disable>
    d4d4:	e50b000c 	str	r0, [fp, #-12]
    d4d8:	e51b3018 	ldr	r3, [fp, #-24]	; 0xffffffe8
    d4dc:	e5932008 	ldr	r2, [r3, #8]
    d4e0:	e30f3ef4 	movw	r3, #65268	; 0xfef4
    d4e4:	e3403000 	movt	r3, #0
    d4e8:	e5933000 	ldr	r3, [r3]
    d4ec:	e1520003 	cmp	r2, r3
    d4f0:	1a000057 	bne	d654 <rlsmtx+0x19c>
    d4f4:	e51b3018 	ldr	r3, [fp, #-24]	; 0xffffffe8
    d4f8:	e5933000 	ldr	r3, [r3]
    d4fc:	e3530000 	cmp	r3, #0
    d500:	ca000053 	bgt	d654 <rlsmtx+0x19c>
    d504:	e51b3018 	ldr	r3, [fp, #-24]	; 0xffffffe8
    d508:	e5933004 	ldr	r3, [r3, #4]
    d50c:	e3530000 	cmp	r3, #0
    d510:	0a000004 	beq	d528 <rlsmtx+0x70>
    d514:	e51b3018 	ldr	r3, [fp, #-24]	; 0xffffffe8
    d518:	e5933004 	ldr	r3, [r3, #4]
    d51c:	e2432001 	sub	r2, r3, #1
    d520:	e51b3018 	ldr	r3, [fp, #-24]	; 0xffffffe8
    d524:	e5832004 	str	r2, [r3, #4]
    d528:	e51b3018 	ldr	r3, [fp, #-24]	; 0xffffffe8
    d52c:	e5933004 	ldr	r3, [r3, #4]
    d530:	e3530000 	cmp	r3, #0
    d534:	1a000046 	bne	d654 <rlsmtx+0x19c>
    d538:	e51b3018 	ldr	r3, [fp, #-24]	; 0xffffffe8
    d53c:	e5933000 	ldr	r3, [r3]
    d540:	e2832001 	add	r2, r3, #1
    d544:	e51b3018 	ldr	r3, [fp, #-24]	; 0xffffffe8
    d548:	e5832000 	str	r2, [r3]
    d54c:	e51b3018 	ldr	r3, [fp, #-24]	; 0xffffffe8
    d550:	e5933000 	ldr	r3, [r3]
    d554:	e3530000 	cmp	r3, #0
    d558:	ca00003a 	bgt	d648 <rlsmtx+0x190>
    d55c:	e51b3018 	ldr	r3, [fp, #-24]	; 0xffffffe8
    d560:	e593300c 	ldr	r3, [r3, #12]
    d564:	e3530000 	cmp	r3, #0
    d568:	0a000036 	beq	d648 <rlsmtx+0x190>
    d56c:	e51b3018 	ldr	r3, [fp, #-24]	; 0xffffffe8
    d570:	e593300c 	ldr	r3, [r3, #12]
    d574:	e50b3010 	str	r3, [fp, #-16]
    d578:	e51b3018 	ldr	r3, [fp, #-24]	; 0xffffffe8
    d57c:	e51b2010 	ldr	r2, [fp, #-16]
    d580:	e5832008 	str	r2, [r3, #8]
    d584:	e51b3010 	ldr	r3, [fp, #-16]
    d588:	e1d334b8 	ldrh	r3, [r3, #72]	; 0x48
    d58c:	e3530004 	cmp	r3, #4
    d590:	1a000005 	bne	d5ac <rlsmtx+0xf4>
    d594:	e51b3010 	ldr	r3, [fp, #-16]
    d598:	e3a02002 	mov	r2, #2
    d59c:	e1c324b8 	strh	r2, [r3, #72]	; 0x48
    d5a0:	e51b0010 	ldr	r0, [fp, #-16]
    d5a4:	ebffeb1c 	bl	821c <queue>
    d5a8:	ea000006 	b	d5c8 <rlsmtx+0x110>
    d5ac:	e51b3010 	ldr	r3, [fp, #-16]
    d5b0:	e1d334b8 	ldrh	r3, [r3, #72]	; 0x48
    d5b4:	e3530003 	cmp	r3, #3
    d5b8:	1a000002 	bne	d5c8 <rlsmtx+0x110>
    d5bc:	e51b3010 	ldr	r3, [fp, #-16]
    d5c0:	e3a02002 	mov	r2, #2
    d5c4:	e1c324b8 	strh	r2, [r3, #72]	; 0x48
    d5c8:	e51b3018 	ldr	r3, [fp, #-24]	; 0xffffffe8
    d5cc:	e593200c 	ldr	r2, [r3, #12]
    d5d0:	e51b3018 	ldr	r3, [fp, #-24]	; 0xffffffe8
    d5d4:	e5933010 	ldr	r3, [r3, #16]
    d5d8:	e1520003 	cmp	r2, r3
    d5dc:	1a000007 	bne	d600 <rlsmtx+0x148>
    d5e0:	e51b3018 	ldr	r3, [fp, #-24]	; 0xffffffe8
    d5e4:	e3a02000 	mov	r2, #0
    d5e8:	e5832010 	str	r2, [r3, #16]
    d5ec:	e51b3018 	ldr	r3, [fp, #-24]	; 0xffffffe8
    d5f0:	e5932010 	ldr	r2, [r3, #16]
    d5f4:	e51b3018 	ldr	r3, [fp, #-24]	; 0xffffffe8
    d5f8:	e583200c 	str	r2, [r3, #12]
    d5fc:	ea000004 	b	d614 <rlsmtx+0x15c>
    d600:	e51b3018 	ldr	r3, [fp, #-24]	; 0xffffffe8
    d604:	e593300c 	ldr	r3, [r3, #12]
    d608:	e5932070 	ldr	r2, [r3, #112]	; 0x70
    d60c:	e51b3018 	ldr	r3, [fp, #-24]	; 0xffffffe8
    d610:	e583200c 	str	r2, [r3, #12]
    d614:	e30f3f04 	movw	r3, #65284	; 0xff04
    d618:	e3403000 	movt	r3, #0
    d61c:	e5933000 	ldr	r3, [r3]
    d620:	e2033002 	and	r3, r3, #2
    d624:	e3530000 	cmp	r3, #0
    d628:	0a000003 	beq	d63c <rlsmtx+0x184>
    d62c:	e51b000c 	ldr	r0, [fp, #-12]
    d630:	ebffeaec 	bl	81e8 <set_enable>
    d634:	ebffeb94 	bl	848c <dispatch>
    d638:	f10c0080 	cpsid	i
    d63c:	e3a03001 	mov	r3, #1
    d640:	e50b3008 	str	r3, [fp, #-8]
    d644:	ea000002 	b	d654 <rlsmtx+0x19c>
    d648:	e51b3018 	ldr	r3, [fp, #-24]	; 0xffffffe8
    d64c:	e3a02000 	mov	r2, #0
    d650:	e5832008 	str	r2, [r3, #8]
    d654:	e51b000c 	ldr	r0, [fp, #-12]
    d658:	ebffeae2 	bl	81e8 <set_enable>
    d65c:	e51b3008 	ldr	r3, [fp, #-8]
    d660:	e1a00003 	mov	r0, r3
    d664:	e24bd004 	sub	sp, fp, #4
    d668:	e8bd8800 	pop	{fp, pc}

0000d66c <create_timer>:
    d66c:	e92d4800 	push	{fp, lr}
    d670:	e28db004 	add	fp, sp, #4
    d674:	e24dd018 	sub	sp, sp, #24
    d678:	e50b0010 	str	r0, [fp, #-16]
    d67c:	e50b1014 	str	r1, [fp, #-20]	; 0xffffffec
    d680:	e50b2018 	str	r2, [fp, #-24]	; 0xffffffe8
    d684:	e50b301c 	str	r3, [fp, #-28]	; 0xffffffe4
    d688:	e3a03000 	mov	r3, #0
    d68c:	e50b3008 	str	r3, [fp, #-8]
    d690:	e30f3f04 	movw	r3, #65284	; 0xff04
    d694:	e3403000 	movt	r3, #0
    d698:	e5933000 	ldr	r3, [r3]
    d69c:	e2033001 	and	r3, r3, #1
    d6a0:	e3530000 	cmp	r3, #0
    d6a4:	1a000001 	bne	d6b0 <create_timer+0x44>
    d6a8:	e3a03000 	mov	r3, #0
    d6ac:	ea00008f 	b	d8f0 <create_timer+0x284>
    d6b0:	e3a03000 	mov	r3, #0
    d6b4:	e50b3010 	str	r3, [fp, #-16]
    d6b8:	e51b3010 	ldr	r3, [fp, #-16]
    d6bc:	e3530000 	cmp	r3, #0
    d6c0:	0a000089 	beq	d8ec <create_timer+0x280>
    d6c4:	e24dd004 	sub	sp, sp, #4
    d6c8:	e52d0004 	push	{r0}		; (str r0, [sp, #-4]!)
    d6cc:	e10f0000 	mrs	r0, CPSR
    d6d0:	e58d0004 	str	r0, [sp, #4]
    d6d4:	e49d0004 	pop	{r0}		; (ldr r0, [sp], #4)
    d6d8:	e3003334 	movw	r3, #820	; 0x334
    d6dc:	e3403001 	movt	r3, #1
    d6e0:	e5933000 	ldr	r3, [r3]
    d6e4:	e2832001 	add	r2, r3, #1
    d6e8:	e3003334 	movw	r3, #820	; 0x334
    d6ec:	e3403001 	movt	r3, #1
    d6f0:	e5832000 	str	r2, [r3]
    d6f4:	e52d0004 	push	{r0}		; (str r0, [sp, #-4]!)
    d6f8:	e59d0004 	ldr	r0, [sp, #4]
    d6fc:	e129f000 	msr	CPSR_fc, r0
    d700:	e49d0004 	pop	{r0}		; (ldr r0, [sp], #4)
    d704:	e28dd004 	add	sp, sp, #4
    d708:	e3a0002c 	mov	r0, #44	; 0x2c
    d70c:	eb000840 	bl	f814 <malloc>
    d710:	e1a03000 	mov	r3, r0
    d714:	e50b3008 	str	r3, [fp, #-8]
    d718:	e51b3008 	ldr	r3, [fp, #-8]
    d71c:	e3530000 	cmp	r3, #0
    d720:	0a000060 	beq	d8a8 <create_timer+0x23c>
    d724:	e24dd004 	sub	sp, sp, #4
    d728:	e52d0004 	push	{r0}		; (str r0, [sp, #-4]!)
    d72c:	e10f0000 	mrs	r0, CPSR
    d730:	e58d0004 	str	r0, [sp, #4]
    d734:	e49d0004 	pop	{r0}		; (ldr r0, [sp], #4)
    d738:	e3003334 	movw	r3, #820	; 0x334
    d73c:	e3403001 	movt	r3, #1
    d740:	e5933000 	ldr	r3, [r3]
    d744:	e2432001 	sub	r2, r3, #1
    d748:	e3003334 	movw	r3, #820	; 0x334
    d74c:	e3403001 	movt	r3, #1
    d750:	e5832000 	str	r2, [r3]
    d754:	e52d0004 	push	{r0}		; (str r0, [sp, #-4]!)
    d758:	e59d0004 	ldr	r0, [sp, #4]
    d75c:	e129f000 	msr	CPSR_fc, r0
    d760:	e49d0004 	pop	{r0}		; (ldr r0, [sp], #4)
    d764:	e28dd004 	add	sp, sp, #4
    d768:	e51b3008 	ldr	r3, [fp, #-8]
    d76c:	e51b2010 	ldr	r2, [fp, #-16]
    d770:	e5832000 	str	r2, [r3]
    d774:	e51b3008 	ldr	r3, [fp, #-8]
    d778:	e59b2008 	ldr	r2, [fp, #8]
    d77c:	e5832018 	str	r2, [r3, #24]
    d780:	e51b3008 	ldr	r3, [fp, #-8]
    d784:	e3a02000 	mov	r2, #0
    d788:	e583201c 	str	r2, [r3, #28]
    d78c:	e51b3008 	ldr	r3, [fp, #-8]
    d790:	e59b2004 	ldr	r2, [fp, #4]
    d794:	e5832024 	str	r2, [r3, #36]	; 0x24
    d798:	e51b3008 	ldr	r3, [fp, #-8]
    d79c:	e283300c 	add	r3, r3, #12
    d7a0:	e3a01000 	mov	r1, #0
    d7a4:	e1a00003 	mov	r0, r3
    d7a8:	ebffef5e 	bl	9528 <dfsm>
    d7ac:	e51b3014 	ldr	r3, [fp, #-20]	; 0xffffffec
    d7b0:	e3530000 	cmp	r3, #0
    d7b4:	0a000031 	beq	d880 <create_timer+0x214>
    d7b8:	e3e03000 	mvn	r3, #0
    d7bc:	e51b2018 	ldr	r2, [fp, #-24]	; 0xffffffe8
    d7c0:	e51b101c 	ldr	r1, [fp, #-28]	; 0xffffffe4
    d7c4:	e51b0014 	ldr	r0, [fp, #-20]	; 0xffffffec
    d7c8:	ebffeb84 	bl	85e0 <create_task>
    d7cc:	e1a02000 	mov	r2, r0
    d7d0:	e51b3008 	ldr	r3, [fp, #-8]
    d7d4:	e5832020 	str	r2, [r3, #32]
    d7d8:	e51b3008 	ldr	r3, [fp, #-8]
    d7dc:	e5933020 	ldr	r3, [r3, #32]
    d7e0:	e3530000 	cmp	r3, #0
    d7e4:	ca000025 	bgt	d880 <create_timer+0x214>
    d7e8:	e24dd004 	sub	sp, sp, #4
    d7ec:	e52d0004 	push	{r0}		; (str r0, [sp, #-4]!)
    d7f0:	e10f0000 	mrs	r0, CPSR
    d7f4:	e58d0004 	str	r0, [sp, #4]
    d7f8:	e49d0004 	pop	{r0}		; (ldr r0, [sp], #4)
    d7fc:	e3003334 	movw	r3, #820	; 0x334
    d800:	e3403001 	movt	r3, #1
    d804:	e5933000 	ldr	r3, [r3]
    d808:	e2832001 	add	r2, r3, #1
    d80c:	e3003334 	movw	r3, #820	; 0x334
    d810:	e3403001 	movt	r3, #1
    d814:	e5832000 	str	r2, [r3]
    d818:	e52d0004 	push	{r0}		; (str r0, [sp, #-4]!)
    d81c:	e59d0004 	ldr	r0, [sp, #4]
    d820:	e129f000 	msr	CPSR_fc, r0
    d824:	e49d0004 	pop	{r0}		; (ldr r0, [sp], #4)
    d828:	e28dd004 	add	sp, sp, #4
    d82c:	e51b0008 	ldr	r0, [fp, #-8]
    d830:	eb000843 	bl	f944 <free>
    d834:	e24dd004 	sub	sp, sp, #4
    d838:	e52d0004 	push	{r0}		; (str r0, [sp, #-4]!)
    d83c:	e10f0000 	mrs	r0, CPSR
    d840:	e58d0004 	str	r0, [sp, #4]
    d844:	e49d0004 	pop	{r0}		; (ldr r0, [sp], #4)
    d848:	e3003334 	movw	r3, #820	; 0x334
    d84c:	e3403001 	movt	r3, #1
    d850:	e5933000 	ldr	r3, [r3]
    d854:	e2432001 	sub	r2, r3, #1
    d858:	e3003334 	movw	r3, #820	; 0x334
    d85c:	e3403001 	movt	r3, #1
    d860:	e5832000 	str	r2, [r3]
    d864:	e52d0004 	push	{r0}		; (str r0, [sp, #-4]!)
    d868:	e59d0004 	ldr	r0, [sp, #4]
    d86c:	e129f000 	msr	CPSR_fc, r0
    d870:	e49d0004 	pop	{r0}		; (ldr r0, [sp], #4)
    d874:	e28dd004 	add	sp, sp, #4
    d878:	e3a03000 	mov	r3, #0
    d87c:	e50b3008 	str	r3, [fp, #-8]
    d880:	e51b3008 	ldr	r3, [fp, #-8]
    d884:	e3530000 	cmp	r3, #0
    d888:	0a000017 	beq	d8ec <create_timer+0x280>
    d88c:	e59b3008 	ldr	r3, [fp, #8]
    d890:	e2033010 	and	r3, r3, #16
    d894:	e3530000 	cmp	r3, #0
    d898:	0a000013 	beq	d8ec <create_timer+0x280>
    d89c:	e51b0008 	ldr	r0, [fp, #-8]
    d8a0:	eb000015 	bl	d8fc <start_timer>
    d8a4:	ea000010 	b	d8ec <create_timer+0x280>
    d8a8:	e24dd004 	sub	sp, sp, #4
    d8ac:	e52d0004 	push	{r0}		; (str r0, [sp, #-4]!)
    d8b0:	e10f0000 	mrs	r0, CPSR
    d8b4:	e58d0004 	str	r0, [sp, #4]
    d8b8:	e49d0004 	pop	{r0}		; (ldr r0, [sp], #4)
    d8bc:	e3003334 	movw	r3, #820	; 0x334
    d8c0:	e3403001 	movt	r3, #1
    d8c4:	e5933000 	ldr	r3, [r3]
    d8c8:	e2432001 	sub	r2, r3, #1
    d8cc:	e3003334 	movw	r3, #820	; 0x334
    d8d0:	e3403001 	movt	r3, #1
    d8d4:	e5832000 	str	r2, [r3]
    d8d8:	e52d0004 	push	{r0}		; (str r0, [sp, #-4]!)
    d8dc:	e59d0004 	ldr	r0, [sp, #4]
    d8e0:	e129f000 	msr	CPSR_fc, r0
    d8e4:	e49d0004 	pop	{r0}		; (ldr r0, [sp], #4)
    d8e8:	e28dd004 	add	sp, sp, #4
    d8ec:	e51b3008 	ldr	r3, [fp, #-8]
    d8f0:	e1a00003 	mov	r0, r3
    d8f4:	e24bd004 	sub	sp, fp, #4
    d8f8:	e8bd8800 	pop	{fp, pc}

0000d8fc <start_timer>:
    d8fc:	e52db004 	push	{fp}		; (str fp, [sp, #-4]!)
    d900:	e28db000 	add	fp, sp, #0
    d904:	e24dd01c 	sub	sp, sp, #28
    d908:	e50b0018 	str	r0, [fp, #-24]	; 0xffffffe8
    d90c:	e3e03000 	mvn	r3, #0
    d910:	e50b3008 	str	r3, [fp, #-8]
    d914:	e51b3018 	ldr	r3, [fp, #-24]	; 0xffffffe8
    d918:	e3530000 	cmp	r3, #0
    d91c:	0a000066 	beq	dabc <start_timer+0x1c0>
    d920:	e51b3018 	ldr	r3, [fp, #-24]	; 0xffffffe8
    d924:	e593301c 	ldr	r3, [r3, #28]
    d928:	e3530000 	cmp	r3, #0
    d92c:	1a000062 	bne	dabc <start_timer+0x1c0>
    d930:	e51b3018 	ldr	r3, [fp, #-24]	; 0xffffffe8
    d934:	e5933000 	ldr	r3, [r3]
    d938:	e50b300c 	str	r3, [fp, #-12]
    d93c:	e30f3f10 	movw	r3, #65296	; 0xff10
    d940:	e3403000 	movt	r3, #0
    d944:	e5933000 	ldr	r3, [r3]
    d948:	e2832001 	add	r2, r3, #1
    d94c:	e30f3f10 	movw	r3, #65296	; 0xff10
    d950:	e3403000 	movt	r3, #0
    d954:	e5832000 	str	r2, [r3]
    d958:	e3003338 	movw	r3, #824	; 0x338
    d95c:	e3403001 	movt	r3, #1
    d960:	e5933000 	ldr	r3, [r3]
    d964:	e3530000 	cmp	r3, #0
    d968:	0a000039 	beq	da54 <start_timer+0x158>
    d96c:	e3003338 	movw	r3, #824	; 0x338
    d970:	e3403001 	movt	r3, #1
    d974:	e5933000 	ldr	r3, [r3]
    d978:	e50b3014 	str	r3, [fp, #-20]	; 0xffffffec
    d97c:	e51b3014 	ldr	r3, [fp, #-20]	; 0xffffffec
    d980:	e50b3010 	str	r3, [fp, #-16]
    d984:	ea000009 	b	d9b0 <start_timer+0xb4>
    d988:	e51b3014 	ldr	r3, [fp, #-20]	; 0xffffffec
    d98c:	e50b3010 	str	r3, [fp, #-16]
    d990:	e51b3014 	ldr	r3, [fp, #-20]	; 0xffffffec
    d994:	e5933028 	ldr	r3, [r3, #40]	; 0x28
    d998:	e50b3014 	str	r3, [fp, #-20]	; 0xffffffec
    d99c:	e51b3010 	ldr	r3, [fp, #-16]
    d9a0:	e5933004 	ldr	r3, [r3, #4]
    d9a4:	e51b200c 	ldr	r2, [fp, #-12]
    d9a8:	e0423003 	sub	r3, r2, r3
    d9ac:	e50b300c 	str	r3, [fp, #-12]
    d9b0:	e51b3014 	ldr	r3, [fp, #-20]	; 0xffffffec
    d9b4:	e3530000 	cmp	r3, #0
    d9b8:	0a000004 	beq	d9d0 <start_timer+0xd4>
    d9bc:	e51b3014 	ldr	r3, [fp, #-20]	; 0xffffffec
    d9c0:	e5933004 	ldr	r3, [r3, #4]
    d9c4:	e51b200c 	ldr	r2, [fp, #-12]
    d9c8:	e1520003 	cmp	r2, r3
    d9cc:	2affffed 	bcs	d988 <start_timer+0x8c>
    d9d0:	e3003338 	movw	r3, #824	; 0x338
    d9d4:	e3403001 	movt	r3, #1
    d9d8:	e5933000 	ldr	r3, [r3]
    d9dc:	e51b2014 	ldr	r2, [fp, #-20]	; 0xffffffec
    d9e0:	e1520003 	cmp	r2, r3
    d9e4:	1a000004 	bne	d9fc <start_timer+0x100>
    d9e8:	e3003338 	movw	r3, #824	; 0x338
    d9ec:	e3403001 	movt	r3, #1
    d9f0:	e51b2018 	ldr	r2, [fp, #-24]	; 0xffffffe8
    d9f4:	e5832000 	str	r2, [r3]
    d9f8:	ea000002 	b	da08 <start_timer+0x10c>
    d9fc:	e51b3010 	ldr	r3, [fp, #-16]
    da00:	e51b2018 	ldr	r2, [fp, #-24]	; 0xffffffe8
    da04:	e5832028 	str	r2, [r3, #40]	; 0x28
    da08:	e51b3018 	ldr	r3, [fp, #-24]	; 0xffffffe8
    da0c:	e51b200c 	ldr	r2, [fp, #-12]
    da10:	e5832004 	str	r2, [r3, #4]
    da14:	e51b3018 	ldr	r3, [fp, #-24]	; 0xffffffe8
    da18:	e51b2014 	ldr	r2, [fp, #-20]	; 0xffffffec
    da1c:	e5832028 	str	r2, [r3, #40]	; 0x28
    da20:	e51b3014 	ldr	r3, [fp, #-20]	; 0xffffffec
    da24:	e3530000 	cmp	r3, #0
    da28:	0a000017 	beq	da8c <start_timer+0x190>
    da2c:	e51b300c 	ldr	r3, [fp, #-12]
    da30:	e3530000 	cmp	r3, #0
    da34:	0a000014 	beq	da8c <start_timer+0x190>
    da38:	e51b3014 	ldr	r3, [fp, #-20]	; 0xffffffec
    da3c:	e5932004 	ldr	r2, [r3, #4]
    da40:	e51b300c 	ldr	r3, [fp, #-12]
    da44:	e0422003 	sub	r2, r2, r3
    da48:	e51b3014 	ldr	r3, [fp, #-20]	; 0xffffffec
    da4c:	e5832004 	str	r2, [r3, #4]
    da50:	ea00000d 	b	da8c <start_timer+0x190>
    da54:	e3003338 	movw	r3, #824	; 0x338
    da58:	e3403001 	movt	r3, #1
    da5c:	e51b2018 	ldr	r2, [fp, #-24]	; 0xffffffe8
    da60:	e5832000 	str	r2, [r3]
    da64:	e3003338 	movw	r3, #824	; 0x338
    da68:	e3403001 	movt	r3, #1
    da6c:	e5933000 	ldr	r3, [r3]
    da70:	e3a02000 	mov	r2, #0
    da74:	e5832028 	str	r2, [r3, #40]	; 0x28
    da78:	e3003338 	movw	r3, #824	; 0x338
    da7c:	e3403001 	movt	r3, #1
    da80:	e5933000 	ldr	r3, [r3]
    da84:	e51b200c 	ldr	r2, [fp, #-12]
    da88:	e5832004 	str	r2, [r3, #4]
    da8c:	e51b3018 	ldr	r3, [fp, #-24]	; 0xffffffe8
    da90:	e3a02001 	mov	r2, #1
    da94:	e583201c 	str	r2, [r3, #28]
    da98:	e30f3f10 	movw	r3, #65296	; 0xff10
    da9c:	e3403000 	movt	r3, #0
    daa0:	e5933000 	ldr	r3, [r3]
    daa4:	e2432001 	sub	r2, r3, #1
    daa8:	e30f3f10 	movw	r3, #65296	; 0xff10
    daac:	e3403000 	movt	r3, #0
    dab0:	e5832000 	str	r2, [r3]
    dab4:	e3a03000 	mov	r3, #0
    dab8:	e50b3008 	str	r3, [fp, #-8]
    dabc:	e51b3008 	ldr	r3, [fp, #-8]
    dac0:	e1a00003 	mov	r0, r3
    dac4:	e28bd000 	add	sp, fp, #0
    dac8:	e49db004 	pop	{fp}		; (ldr fp, [sp], #4)
    dacc:	e12fff1e 	bx	lr

0000dad0 <stop_timer>:
    dad0:	e92d4800 	push	{fp, lr}
    dad4:	e28db004 	add	fp, sp, #4
    dad8:	e24dd018 	sub	sp, sp, #24
    dadc:	e50b0018 	str	r0, [fp, #-24]	; 0xffffffe8
    dae0:	e3e03000 	mvn	r3, #0
    dae4:	e50b3008 	str	r3, [fp, #-8]
    dae8:	e24dd004 	sub	sp, sp, #4
    daec:	e52d0004 	push	{r0}		; (str r0, [sp, #-4]!)
    daf0:	e10f0000 	mrs	r0, CPSR
    daf4:	e58d0004 	str	r0, [sp, #4]
    daf8:	e49d0004 	pop	{r0}		; (ldr r0, [sp], #4)
    dafc:	e3003334 	movw	r3, #820	; 0x334
    db00:	e3403001 	movt	r3, #1
    db04:	e5933000 	ldr	r3, [r3]
    db08:	e2832001 	add	r2, r3, #1
    db0c:	e3003334 	movw	r3, #820	; 0x334
    db10:	e3403001 	movt	r3, #1
    db14:	e5832000 	str	r2, [r3]
    db18:	e52d0004 	push	{r0}		; (str r0, [sp, #-4]!)
    db1c:	e59d0004 	ldr	r0, [sp, #4]
    db20:	e129f000 	msr	CPSR_fc, r0
    db24:	e49d0004 	pop	{r0}		; (ldr r0, [sp], #4)
    db28:	e28dd004 	add	sp, sp, #4
    db2c:	e3003338 	movw	r3, #824	; 0x338
    db30:	e3403001 	movt	r3, #1
    db34:	e5933000 	ldr	r3, [r3]
    db38:	e3530000 	cmp	r3, #0
    db3c:	0a000051 	beq	dc88 <stop_timer+0x1b8>
    db40:	e51b3018 	ldr	r3, [fp, #-24]	; 0xffffffe8
    db44:	e3530000 	cmp	r3, #0
    db48:	0a00004e 	beq	dc88 <stop_timer+0x1b8>
    db4c:	e30f3f10 	movw	r3, #65296	; 0xff10
    db50:	e3403000 	movt	r3, #0
    db54:	e5933000 	ldr	r3, [r3]
    db58:	e2832001 	add	r2, r3, #1
    db5c:	e30f3f10 	movw	r3, #65296	; 0xff10
    db60:	e3403000 	movt	r3, #0
    db64:	e5832000 	str	r2, [r3]
    db68:	e3a03000 	mov	r3, #0
    db6c:	e50b300c 	str	r3, [fp, #-12]
    db70:	e3003338 	movw	r3, #824	; 0x338
    db74:	e3403001 	movt	r3, #1
    db78:	e5933000 	ldr	r3, [r3]
    db7c:	e50b3010 	str	r3, [fp, #-16]
    db80:	ea000004 	b	db98 <stop_timer+0xc8>
    db84:	e51b3010 	ldr	r3, [fp, #-16]
    db88:	e50b300c 	str	r3, [fp, #-12]
    db8c:	e51b3010 	ldr	r3, [fp, #-16]
    db90:	e5933028 	ldr	r3, [r3, #40]	; 0x28
    db94:	e50b3010 	str	r3, [fp, #-16]
    db98:	e51b3010 	ldr	r3, [fp, #-16]
    db9c:	e3530000 	cmp	r3, #0
    dba0:	0a000003 	beq	dbb4 <stop_timer+0xe4>
    dba4:	e51b2010 	ldr	r2, [fp, #-16]
    dba8:	e51b3018 	ldr	r3, [fp, #-24]	; 0xffffffe8
    dbac:	e1520003 	cmp	r2, r3
    dbb0:	1afffff3 	bne	db84 <stop_timer+0xb4>
    dbb4:	e51b2010 	ldr	r2, [fp, #-16]
    dbb8:	e51b3018 	ldr	r3, [fp, #-24]	; 0xffffffe8
    dbbc:	e1520003 	cmp	r2, r3
    dbc0:	1a000029 	bne	dc6c <stop_timer+0x19c>
    dbc4:	e51b3010 	ldr	r3, [fp, #-16]
    dbc8:	e5933028 	ldr	r3, [r3, #40]	; 0x28
    dbcc:	e3530000 	cmp	r3, #0
    dbd0:	0a00000c 	beq	dc08 <stop_timer+0x138>
    dbd4:	e51b3010 	ldr	r3, [fp, #-16]
    dbd8:	e5933004 	ldr	r3, [r3, #4]
    dbdc:	e3530000 	cmp	r3, #0
    dbe0:	0a000008 	beq	dc08 <stop_timer+0x138>
    dbe4:	e51b3010 	ldr	r3, [fp, #-16]
    dbe8:	e5933028 	ldr	r3, [r3, #40]	; 0x28
    dbec:	e5931004 	ldr	r1, [r3, #4]
    dbf0:	e51b3010 	ldr	r3, [fp, #-16]
    dbf4:	e5932004 	ldr	r2, [r3, #4]
    dbf8:	e51b3010 	ldr	r3, [fp, #-16]
    dbfc:	e5933028 	ldr	r3, [r3, #40]	; 0x28
    dc00:	e0812002 	add	r2, r1, r2
    dc04:	e5832004 	str	r2, [r3, #4]
    dc08:	e51b300c 	ldr	r3, [fp, #-12]
    dc0c:	e3530000 	cmp	r3, #0
    dc10:	0a000004 	beq	dc28 <stop_timer+0x158>
    dc14:	e51b3010 	ldr	r3, [fp, #-16]
    dc18:	e5932028 	ldr	r2, [r3, #40]	; 0x28
    dc1c:	e51b300c 	ldr	r3, [fp, #-12]
    dc20:	e5832028 	str	r2, [r3, #40]	; 0x28
    dc24:	ea000004 	b	dc3c <stop_timer+0x16c>
    dc28:	e51b3010 	ldr	r3, [fp, #-16]
    dc2c:	e5932028 	ldr	r2, [r3, #40]	; 0x28
    dc30:	e3003338 	movw	r3, #824	; 0x338
    dc34:	e3403001 	movt	r3, #1
    dc38:	e5832000 	str	r2, [r3]
    dc3c:	e51b3018 	ldr	r3, [fp, #-24]	; 0xffffffe8
    dc40:	e3a02000 	mov	r2, #0
    dc44:	e583201c 	str	r2, [r3, #28]
    dc48:	e51b3018 	ldr	r3, [fp, #-24]	; 0xffffffe8
    dc4c:	e283200c 	add	r2, r3, #12
    dc50:	e51b3018 	ldr	r3, [fp, #-24]	; 0xffffffe8
    dc54:	e5933008 	ldr	r3, [r3, #8]
    dc58:	e1a01003 	mov	r1, r3
    dc5c:	e1a00002 	mov	r0, r2
    dc60:	ebffeef8 	bl	9848 <rlsm_count>
    dc64:	e3a03000 	mov	r3, #0
    dc68:	e50b3008 	str	r3, [fp, #-8]
    dc6c:	e30f3f10 	movw	r3, #65296	; 0xff10
    dc70:	e3403000 	movt	r3, #0
    dc74:	e5933000 	ldr	r3, [r3]
    dc78:	e2432001 	sub	r2, r3, #1
    dc7c:	e30f3f10 	movw	r3, #65296	; 0xff10
    dc80:	e3403000 	movt	r3, #0
    dc84:	e5832000 	str	r2, [r3]
    dc88:	e24dd004 	sub	sp, sp, #4
    dc8c:	e52d0004 	push	{r0}		; (str r0, [sp, #-4]!)
    dc90:	e10f0000 	mrs	r0, CPSR
    dc94:	e58d0004 	str	r0, [sp, #4]
    dc98:	e49d0004 	pop	{r0}		; (ldr r0, [sp], #4)
    dc9c:	e3003334 	movw	r3, #820	; 0x334
    dca0:	e3403001 	movt	r3, #1
    dca4:	e5933000 	ldr	r3, [r3]
    dca8:	e2432001 	sub	r2, r3, #1
    dcac:	e3003334 	movw	r3, #820	; 0x334
    dcb0:	e3403001 	movt	r3, #1
    dcb4:	e5832000 	str	r2, [r3]
    dcb8:	e52d0004 	push	{r0}		; (str r0, [sp, #-4]!)
    dcbc:	e59d0004 	ldr	r0, [sp, #4]
    dcc0:	e129f000 	msr	CPSR_fc, r0
    dcc4:	e49d0004 	pop	{r0}		; (ldr r0, [sp], #4)
    dcc8:	e28dd004 	add	sp, sp, #4
    dccc:	e51b3008 	ldr	r3, [fp, #-8]
    dcd0:	e1a00003 	mov	r0, r3
    dcd4:	e24bd004 	sub	sp, fp, #4
    dcd8:	e8bd8800 	pop	{fp, pc}

0000dcdc <shot_timer>:
    dcdc:	e92d4800 	push	{fp, lr}
    dce0:	e28db004 	add	fp, sp, #4
    dce4:	e24dd018 	sub	sp, sp, #24
    dce8:	e50b0018 	str	r0, [fp, #-24]	; 0xffffffe8
    dcec:	e3e03000 	mvn	r3, #0
    dcf0:	e50b3008 	str	r3, [fp, #-8]
    dcf4:	e3a03000 	mov	r3, #0
    dcf8:	e50b3010 	str	r3, [fp, #-16]
    dcfc:	e51b3018 	ldr	r3, [fp, #-24]	; 0xffffffe8
    dd00:	e3530000 	cmp	r3, #0
    dd04:	0a00008b 	beq	df38 <shot_timer+0x25c>
    dd08:	e24dd004 	sub	sp, sp, #4
    dd0c:	e52d0004 	push	{r0}		; (str r0, [sp, #-4]!)
    dd10:	e10f0000 	mrs	r0, CPSR
    dd14:	e58d0004 	str	r0, [sp, #4]
    dd18:	e49d0004 	pop	{r0}		; (ldr r0, [sp], #4)
    dd1c:	e3003334 	movw	r3, #820	; 0x334
    dd20:	e3403001 	movt	r3, #1
    dd24:	e5933000 	ldr	r3, [r3]
    dd28:	e2832001 	add	r2, r3, #1
    dd2c:	e3003334 	movw	r3, #820	; 0x334
    dd30:	e3403001 	movt	r3, #1
    dd34:	e5832000 	str	r2, [r3]
    dd38:	e52d0004 	push	{r0}		; (str r0, [sp, #-4]!)
    dd3c:	e59d0004 	ldr	r0, [sp, #4]
    dd40:	e129f000 	msr	CPSR_fc, r0
    dd44:	e49d0004 	pop	{r0}		; (ldr r0, [sp], #4)
    dd48:	e28dd004 	add	sp, sp, #4
    dd4c:	e3003338 	movw	r3, #824	; 0x338
    dd50:	e3403001 	movt	r3, #1
    dd54:	e5933000 	ldr	r3, [r3]
    dd58:	e3530000 	cmp	r3, #0
    dd5c:	0a000045 	beq	de78 <shot_timer+0x19c>
    dd60:	e30f3f10 	movw	r3, #65296	; 0xff10
    dd64:	e3403000 	movt	r3, #0
    dd68:	e5933000 	ldr	r3, [r3]
    dd6c:	e2832001 	add	r2, r3, #1
    dd70:	e30f3f10 	movw	r3, #65296	; 0xff10
    dd74:	e3403000 	movt	r3, #0
    dd78:	e5832000 	str	r2, [r3]
    dd7c:	e3a03000 	mov	r3, #0
    dd80:	e50b300c 	str	r3, [fp, #-12]
    dd84:	e3003338 	movw	r3, #824	; 0x338
    dd88:	e3403001 	movt	r3, #1
    dd8c:	e5933000 	ldr	r3, [r3]
    dd90:	e50b3010 	str	r3, [fp, #-16]
    dd94:	ea000004 	b	ddac <shot_timer+0xd0>
    dd98:	e51b3010 	ldr	r3, [fp, #-16]
    dd9c:	e50b300c 	str	r3, [fp, #-12]
    dda0:	e51b3010 	ldr	r3, [fp, #-16]
    dda4:	e5933028 	ldr	r3, [r3, #40]	; 0x28
    dda8:	e50b3010 	str	r3, [fp, #-16]
    ddac:	e51b3010 	ldr	r3, [fp, #-16]
    ddb0:	e3530000 	cmp	r3, #0
    ddb4:	0a000003 	beq	ddc8 <shot_timer+0xec>
    ddb8:	e51b2010 	ldr	r2, [fp, #-16]
    ddbc:	e51b3018 	ldr	r3, [fp, #-24]	; 0xffffffe8
    ddc0:	e1520003 	cmp	r2, r3
    ddc4:	1afffff3 	bne	dd98 <shot_timer+0xbc>
    ddc8:	e51b2010 	ldr	r2, [fp, #-16]
    ddcc:	e51b3018 	ldr	r3, [fp, #-24]	; 0xffffffe8
    ddd0:	e1520003 	cmp	r2, r3
    ddd4:	1a000020 	bne	de5c <shot_timer+0x180>
    ddd8:	e51b3010 	ldr	r3, [fp, #-16]
    dddc:	e5933028 	ldr	r3, [r3, #40]	; 0x28
    dde0:	e3530000 	cmp	r3, #0
    dde4:	0a00000c 	beq	de1c <shot_timer+0x140>
    dde8:	e51b3010 	ldr	r3, [fp, #-16]
    ddec:	e5933004 	ldr	r3, [r3, #4]
    ddf0:	e3530000 	cmp	r3, #0
    ddf4:	0a000008 	beq	de1c <shot_timer+0x140>
    ddf8:	e51b3010 	ldr	r3, [fp, #-16]
    ddfc:	e5933028 	ldr	r3, [r3, #40]	; 0x28
    de00:	e5931004 	ldr	r1, [r3, #4]
    de04:	e51b3010 	ldr	r3, [fp, #-16]
    de08:	e5932004 	ldr	r2, [r3, #4]
    de0c:	e51b3010 	ldr	r3, [fp, #-16]
    de10:	e5933028 	ldr	r3, [r3, #40]	; 0x28
    de14:	e0812002 	add	r2, r1, r2
    de18:	e5832004 	str	r2, [r3, #4]
    de1c:	e51b300c 	ldr	r3, [fp, #-12]
    de20:	e3530000 	cmp	r3, #0
    de24:	0a000004 	beq	de3c <shot_timer+0x160>
    de28:	e51b3010 	ldr	r3, [fp, #-16]
    de2c:	e5932028 	ldr	r2, [r3, #40]	; 0x28
    de30:	e51b300c 	ldr	r3, [fp, #-12]
    de34:	e5832028 	str	r2, [r3, #40]	; 0x28
    de38:	ea000004 	b	de50 <shot_timer+0x174>
    de3c:	e51b3010 	ldr	r3, [fp, #-16]
    de40:	e5932028 	ldr	r2, [r3, #40]	; 0x28
    de44:	e3003338 	movw	r3, #824	; 0x338
    de48:	e3403001 	movt	r3, #1
    de4c:	e5832000 	str	r2, [r3]
    de50:	e51b3018 	ldr	r3, [fp, #-24]	; 0xffffffe8
    de54:	e3a02000 	mov	r2, #0
    de58:	e583201c 	str	r2, [r3, #28]
    de5c:	e30f3f10 	movw	r3, #65296	; 0xff10
    de60:	e3403000 	movt	r3, #0
    de64:	e5933000 	ldr	r3, [r3]
    de68:	e2432001 	sub	r2, r3, #1
    de6c:	e30f3f10 	movw	r3, #65296	; 0xff10
    de70:	e3403000 	movt	r3, #0
    de74:	e5832000 	str	r2, [r3]
    de78:	e51b3018 	ldr	r3, [fp, #-24]	; 0xffffffe8
    de7c:	e283200c 	add	r2, r3, #12
    de80:	e51b3018 	ldr	r3, [fp, #-24]	; 0xffffffe8
    de84:	e5933008 	ldr	r3, [r3, #8]
    de88:	e1a01003 	mov	r1, r3
    de8c:	e1a00002 	mov	r0, r2
    de90:	ebffee6c 	bl	9848 <rlsm_count>
    de94:	e51b3018 	ldr	r3, [fp, #-24]	; 0xffffffe8
    de98:	e5933020 	ldr	r3, [r3, #32]
    de9c:	e3530000 	cmp	r3, #0
    dea0:	0a000006 	beq	dec0 <shot_timer+0x1e4>
    dea4:	e51b3018 	ldr	r3, [fp, #-24]	; 0xffffffe8
    dea8:	e5932020 	ldr	r2, [r3, #32]
    deac:	e51b3018 	ldr	r3, [fp, #-24]	; 0xffffffe8
    deb0:	e5933024 	ldr	r3, [r3, #36]	; 0x24
    deb4:	e1a01003 	mov	r1, r3
    deb8:	e1a00002 	mov	r0, r2
    debc:	ebffece6 	bl	925c <sptsk>
    dec0:	e51b2010 	ldr	r2, [fp, #-16]
    dec4:	e51b3018 	ldr	r3, [fp, #-24]	; 0xffffffe8
    dec8:	e1520003 	cmp	r2, r3
    decc:	1a000006 	bne	deec <shot_timer+0x210>
    ded0:	e51b3018 	ldr	r3, [fp, #-24]	; 0xffffffe8
    ded4:	e5933018 	ldr	r3, [r3, #24]
    ded8:	e2033001 	and	r3, r3, #1
    dedc:	e3530000 	cmp	r3, #0
    dee0:	0a000001 	beq	deec <shot_timer+0x210>
    dee4:	e51b0018 	ldr	r0, [fp, #-24]	; 0xffffffe8
    dee8:	ebfffe83 	bl	d8fc <start_timer>
    deec:	e24dd004 	sub	sp, sp, #4
    def0:	e52d0004 	push	{r0}		; (str r0, [sp, #-4]!)
    def4:	e10f0000 	mrs	r0, CPSR
    def8:	e58d0004 	str	r0, [sp, #4]
    defc:	e49d0004 	pop	{r0}		; (ldr r0, [sp], #4)
    df00:	e3003334 	movw	r3, #820	; 0x334
    df04:	e3403001 	movt	r3, #1
    df08:	e5933000 	ldr	r3, [r3]
    df0c:	e2432001 	sub	r2, r3, #1
    df10:	e3003334 	movw	r3, #820	; 0x334
    df14:	e3403001 	movt	r3, #1
    df18:	e5832000 	str	r2, [r3]
    df1c:	e52d0004 	push	{r0}		; (str r0, [sp, #-4]!)
    df20:	e59d0004 	ldr	r0, [sp, #4]
    df24:	e129f000 	msr	CPSR_fc, r0
    df28:	e49d0004 	pop	{r0}		; (ldr r0, [sp], #4)
    df2c:	e28dd004 	add	sp, sp, #4
    df30:	e3a03000 	mov	r3, #0
    df34:	e50b3008 	str	r3, [fp, #-8]
    df38:	e51b3008 	ldr	r3, [fp, #-8]
    df3c:	e1a00003 	mov	r0, r3
    df40:	e24bd004 	sub	sp, fp, #4
    df44:	e8bd8800 	pop	{fp, pc}

0000df48 <wait_on_timer>:
    df48:	e92d4800 	push	{fp, lr}
    df4c:	e28db004 	add	fp, sp, #4
    df50:	e24dd018 	sub	sp, sp, #24
    df54:	e50b0018 	str	r0, [fp, #-24]	; 0xffffffe8
    df58:	e3a03000 	mov	r3, #0
    df5c:	e50b3008 	str	r3, [fp, #-8]
    df60:	e51b3018 	ldr	r3, [fp, #-24]	; 0xffffffe8
    df64:	e3530000 	cmp	r3, #0
    df68:	0a00004b 	beq	e09c <wait_on_timer+0x154>
    df6c:	ebffe893 	bl	81c0 <set_disable>
    df70:	e50b000c 	str	r0, [fp, #-12]
    df74:	e51b3018 	ldr	r3, [fp, #-24]	; 0xffffffe8
    df78:	e5933008 	ldr	r3, [r3, #8]
    df7c:	e2832001 	add	r2, r3, #1
    df80:	e51b3018 	ldr	r3, [fp, #-24]	; 0xffffffe8
    df84:	e5832008 	str	r2, [r3, #8]
    df88:	e51b3018 	ldr	r3, [fp, #-24]	; 0xffffffe8
    df8c:	e283300c 	add	r3, r3, #12
    df90:	e50b3010 	str	r3, [fp, #-16]
    df94:	e51b3010 	ldr	r3, [fp, #-16]
    df98:	e5933000 	ldr	r3, [r3]
    df9c:	e2432001 	sub	r2, r3, #1
    dfa0:	e51b3010 	ldr	r3, [fp, #-16]
    dfa4:	e5832000 	str	r2, [r3]
    dfa8:	e51b3010 	ldr	r3, [fp, #-16]
    dfac:	e5933000 	ldr	r3, [r3]
    dfb0:	e3530000 	cmp	r3, #0
    dfb4:	aa000036 	bge	e094 <wait_on_timer+0x14c>
    dfb8:	e30f3ef4 	movw	r3, #65268	; 0xfef4
    dfbc:	e3403000 	movt	r3, #0
    dfc0:	e5933000 	ldr	r3, [r3]
    dfc4:	e50b3014 	str	r3, [fp, #-20]	; 0xffffffec
    dfc8:	e51b3014 	ldr	r3, [fp, #-20]	; 0xffffffec
    dfcc:	e3a02000 	mov	r2, #0
    dfd0:	e5832070 	str	r2, [r3, #112]	; 0x70
    dfd4:	e51b3010 	ldr	r3, [fp, #-16]
    dfd8:	e5933004 	ldr	r3, [r3, #4]
    dfdc:	e3530000 	cmp	r3, #0
    dfe0:	1a000007 	bne	e004 <wait_on_timer+0xbc>
    dfe4:	e51b3010 	ldr	r3, [fp, #-16]
    dfe8:	e51b2014 	ldr	r2, [fp, #-20]	; 0xffffffec
    dfec:	e5832008 	str	r2, [r3, #8]
    dff0:	e51b3010 	ldr	r3, [fp, #-16]
    dff4:	e5932008 	ldr	r2, [r3, #8]
    dff8:	e51b3010 	ldr	r3, [fp, #-16]
    dffc:	e5832004 	str	r2, [r3, #4]
    e000:	ea000006 	b	e020 <wait_on_timer+0xd8>
    e004:	e51b3010 	ldr	r3, [fp, #-16]
    e008:	e5933008 	ldr	r3, [r3, #8]
    e00c:	e51b2014 	ldr	r2, [fp, #-20]	; 0xffffffec
    e010:	e5832070 	str	r2, [r3, #112]	; 0x70
    e014:	e51b3010 	ldr	r3, [fp, #-16]
    e018:	e51b2014 	ldr	r2, [fp, #-20]	; 0xffffffec
    e01c:	e5832008 	str	r2, [r3, #8]
    e020:	e30f3ef4 	movw	r3, #65268	; 0xfef4
    e024:	e3403000 	movt	r3, #0
    e028:	e5933000 	ldr	r3, [r3]
    e02c:	e3a02000 	mov	r2, #0
    e030:	e1c324ba 	strh	r2, [r3, #74]	; 0x4a
    e034:	e30f3ef4 	movw	r3, #65268	; 0xfef4
    e038:	e3403000 	movt	r3, #0
    e03c:	e5933000 	ldr	r3, [r3]
    e040:	e3a02003 	mov	r2, #3
    e044:	e1c324b8 	strh	r2, [r3, #72]	; 0x48
    e048:	e51b000c 	ldr	r0, [fp, #-12]
    e04c:	ebffe865 	bl	81e8 <set_enable>
    e050:	ea000006 	b	e070 <wait_on_timer+0x128>
    e054:	e30f3f04 	movw	r3, #65284	; 0xff04
    e058:	e3403000 	movt	r3, #0
    e05c:	e5933000 	ldr	r3, [r3]
    e060:	e2033002 	and	r3, r3, #2
    e064:	e3530000 	cmp	r3, #0
    e068:	0a000000 	beq	e070 <wait_on_timer+0x128>
    e06c:	ef000060 	svc	0x00000060
    e070:	e30f3ef4 	movw	r3, #65268	; 0xfef4
    e074:	e3403000 	movt	r3, #0
    e078:	e5933000 	ldr	r3, [r3]
    e07c:	e1d334b8 	ldrh	r3, [r3, #72]	; 0x48
    e080:	e3530003 	cmp	r3, #3
    e084:	0afffff2 	beq	e054 <wait_on_timer+0x10c>
    e088:	ebffe84c 	bl	81c0 <set_disable>
    e08c:	e3a03001 	mov	r3, #1
    e090:	e50b3008 	str	r3, [fp, #-8]
    e094:	e51b000c 	ldr	r0, [fp, #-12]
    e098:	ebffe852 	bl	81e8 <set_enable>
    e09c:	e51b3008 	ldr	r3, [fp, #-8]
    e0a0:	e1a00003 	mov	r0, r3
    e0a4:	e24bd004 	sub	sp, fp, #4
    e0a8:	e8bd8800 	pop	{fp, pc}

0000e0ac <delete_timer>:
    e0ac:	e92d4800 	push	{fp, lr}
    e0b0:	e28db004 	add	fp, sp, #4
    e0b4:	e24dd010 	sub	sp, sp, #16
    e0b8:	e50b0010 	str	r0, [fp, #-16]
    e0bc:	e50b1014 	str	r1, [fp, #-20]	; 0xffffffec
    e0c0:	e3e03000 	mvn	r3, #0
    e0c4:	e50b3008 	str	r3, [fp, #-8]
    e0c8:	e24dd004 	sub	sp, sp, #4
    e0cc:	e52d0004 	push	{r0}		; (str r0, [sp, #-4]!)
    e0d0:	e10f0000 	mrs	r0, CPSR
    e0d4:	e58d0004 	str	r0, [sp, #4]
    e0d8:	e49d0004 	pop	{r0}		; (ldr r0, [sp], #4)
    e0dc:	e3003334 	movw	r3, #820	; 0x334
    e0e0:	e3403001 	movt	r3, #1
    e0e4:	e5933000 	ldr	r3, [r3]
    e0e8:	e2832001 	add	r2, r3, #1
    e0ec:	e3003334 	movw	r3, #820	; 0x334
    e0f0:	e3403001 	movt	r3, #1
    e0f4:	e5832000 	str	r2, [r3]
    e0f8:	e52d0004 	push	{r0}		; (str r0, [sp, #-4]!)
    e0fc:	e59d0004 	ldr	r0, [sp, #4]
    e100:	e129f000 	msr	CPSR_fc, r0
    e104:	e49d0004 	pop	{r0}		; (ldr r0, [sp], #4)
    e108:	e28dd004 	add	sp, sp, #4
    e10c:	e3003338 	movw	r3, #824	; 0x338
    e110:	e3403001 	movt	r3, #1
    e114:	e5933000 	ldr	r3, [r3]
    e118:	e3530000 	cmp	r3, #0
    e11c:	0a000058 	beq	e284 <delete_timer+0x1d8>
    e120:	e51b3010 	ldr	r3, [fp, #-16]
    e124:	e3530000 	cmp	r3, #0
    e128:	0a000055 	beq	e284 <delete_timer+0x1d8>
    e12c:	e51b0010 	ldr	r0, [fp, #-16]
    e130:	ebfffe66 	bl	dad0 <stop_timer>
    e134:	e50b0008 	str	r0, [fp, #-8]
    e138:	e51b3010 	ldr	r3, [fp, #-16]
    e13c:	e5933020 	ldr	r3, [r3, #32]
    e140:	e50b300c 	str	r3, [fp, #-12]
    e144:	e51b300c 	ldr	r3, [fp, #-12]
    e148:	e3530000 	cmp	r3, #0
    e14c:	0a00004a 	beq	e27c <delete_timer+0x1d0>
    e150:	e30f3f38 	movw	r3, #65336	; 0xff38
    e154:	e3403000 	movt	r3, #0
    e158:	e51b200c 	ldr	r2, [fp, #-12]
    e15c:	e7933102 	ldr	r3, [r3, r2, lsl #2]
    e160:	e3530000 	cmp	r3, #0
    e164:	0a000044 	beq	e27c <delete_timer+0x1d0>
    e168:	e30f3f38 	movw	r3, #65336	; 0xff38
    e16c:	e3403000 	movt	r3, #0
    e170:	e51b200c 	ldr	r2, [fp, #-12]
    e174:	e7933102 	ldr	r3, [r3, r2, lsl #2]
    e178:	e1d334b8 	ldrh	r3, [r3, #72]	; 0x48
    e17c:	e3530005 	cmp	r3, #5
    e180:	1a000004 	bne	e198 <delete_timer+0xec>
    e184:	e51b0010 	ldr	r0, [fp, #-16]
    e188:	eb0005ed 	bl	f944 <free>
    e18c:	e51b000c 	ldr	r0, [fp, #-12]
    e190:	ebffea4b 	bl	8ac4 <kill_task>
    e194:	ea00003a 	b	e284 <delete_timer+0x1d8>
    e198:	e51b3014 	ldr	r3, [fp, #-20]	; 0xffffffec
    e19c:	e3530000 	cmp	r3, #0
    e1a0:	0a000032 	beq	e270 <delete_timer+0x1c4>
    e1a4:	ea000025 	b	e240 <delete_timer+0x194>
    e1a8:	e24dd004 	sub	sp, sp, #4
    e1ac:	e52d0004 	push	{r0}		; (str r0, [sp, #-4]!)
    e1b0:	e10f0000 	mrs	r0, CPSR
    e1b4:	e58d0004 	str	r0, [sp, #4]
    e1b8:	e49d0004 	pop	{r0}		; (ldr r0, [sp], #4)
    e1bc:	e3003334 	movw	r3, #820	; 0x334
    e1c0:	e3403001 	movt	r3, #1
    e1c4:	e5933000 	ldr	r3, [r3]
    e1c8:	e2432001 	sub	r2, r3, #1
    e1cc:	e3003334 	movw	r3, #820	; 0x334
    e1d0:	e3403001 	movt	r3, #1
    e1d4:	e5832000 	str	r2, [r3]
    e1d8:	e52d0004 	push	{r0}		; (str r0, [sp, #-4]!)
    e1dc:	e59d0004 	ldr	r0, [sp, #4]
    e1e0:	e129f000 	msr	CPSR_fc, r0
    e1e4:	e49d0004 	pop	{r0}		; (ldr r0, [sp], #4)
    e1e8:	e28dd004 	add	sp, sp, #4
    e1ec:	e3a00000 	mov	r0, #0
    e1f0:	e3a01000 	mov	r1, #0
    e1f4:	e3441049 	movt	r1, #16457	; 0x4049
    e1f8:	ebffeeb8 	bl	9ce0 <delay_task>
    e1fc:	e24dd004 	sub	sp, sp, #4
    e200:	e52d0004 	push	{r0}		; (str r0, [sp, #-4]!)
    e204:	e10f0000 	mrs	r0, CPSR
    e208:	e58d0004 	str	r0, [sp, #4]
    e20c:	e49d0004 	pop	{r0}		; (ldr r0, [sp], #4)
    e210:	e3003334 	movw	r3, #820	; 0x334
    e214:	e3403001 	movt	r3, #1
    e218:	e5933000 	ldr	r3, [r3]
    e21c:	e2832001 	add	r2, r3, #1
    e220:	e3003334 	movw	r3, #820	; 0x334
    e224:	e3403001 	movt	r3, #1
    e228:	e5832000 	str	r2, [r3]
    e22c:	e52d0004 	push	{r0}		; (str r0, [sp, #-4]!)
    e230:	e59d0004 	ldr	r0, [sp, #4]
    e234:	e129f000 	msr	CPSR_fc, r0
    e238:	e49d0004 	pop	{r0}		; (ldr r0, [sp], #4)
    e23c:	e28dd004 	add	sp, sp, #4
    e240:	e30f3f38 	movw	r3, #65336	; 0xff38
    e244:	e3403000 	movt	r3, #0
    e248:	e51b200c 	ldr	r2, [fp, #-12]
    e24c:	e7933102 	ldr	r3, [r3, r2, lsl #2]
    e250:	e1d334b8 	ldrh	r3, [r3, #72]	; 0x48
    e254:	e3530005 	cmp	r3, #5
    e258:	1affffd2 	bne	e1a8 <delete_timer+0xfc>
    e25c:	e51b0010 	ldr	r0, [fp, #-16]
    e260:	eb0005b7 	bl	f944 <free>
    e264:	e51b000c 	ldr	r0, [fp, #-12]
    e268:	ebffea15 	bl	8ac4 <kill_task>
    e26c:	ea000004 	b	e284 <delete_timer+0x1d8>
    e270:	e3a03001 	mov	r3, #1
    e274:	e50b3008 	str	r3, [fp, #-8]
    e278:	ea000001 	b	e284 <delete_timer+0x1d8>
    e27c:	e51b0010 	ldr	r0, [fp, #-16]
    e280:	eb0005af 	bl	f944 <free>
    e284:	e24dd004 	sub	sp, sp, #4
    e288:	e52d0004 	push	{r0}		; (str r0, [sp, #-4]!)
    e28c:	e10f0000 	mrs	r0, CPSR
    e290:	e58d0004 	str	r0, [sp, #4]
    e294:	e49d0004 	pop	{r0}		; (ldr r0, [sp], #4)
    e298:	e3003334 	movw	r3, #820	; 0x334
    e29c:	e3403001 	movt	r3, #1
    e2a0:	e5933000 	ldr	r3, [r3]
    e2a4:	e2432001 	sub	r2, r3, #1
    e2a8:	e3003334 	movw	r3, #820	; 0x334
    e2ac:	e3403001 	movt	r3, #1
